ARM GAS  C:\Users\alireza\AppData\Local\Temp\ccGw81F6.s 			page 1


   1              		.cpu cortex-m4
   2              		.arch armv7e-m
   3              		.fpu fpv4-sp-d16
   4              		.eabi_attribute 27, 1
   5              		.eabi_attribute 28, 1
   6              		.eabi_attribute 20, 1
   7              		.eabi_attribute 21, 1
   8              		.eabi_attribute 23, 3
   9              		.eabi_attribute 24, 1
  10              		.eabi_attribute 25, 1
  11              		.eabi_attribute 26, 1
  12              		.eabi_attribute 30, 1
  13              		.eabi_attribute 34, 1
  14              		.eabi_attribute 18, 4
  15              		.file	"adc.c"
  16              		.text
  17              	.Ltext0:
  18              		.cfi_sections	.debug_frame
  19              		.file 1 "Core/Src/adc.c"
  20              		.section	.text.MX_ADC1_Init,"ax",%progbits
  21              		.align	1
  22              		.global	MX_ADC1_Init
  23              		.syntax unified
  24              		.thumb
  25              		.thumb_func
  27              	MX_ADC1_Init:
  28              	.LFB220:
   1:Core/Src/adc.c **** /* USER CODE BEGIN Header */
   2:Core/Src/adc.c **** /**
   3:Core/Src/adc.c ****   ******************************************************************************
   4:Core/Src/adc.c ****   * @file    adc.c
   5:Core/Src/adc.c ****   * @brief   This file provides code for the configuration
   6:Core/Src/adc.c ****   *          of the ADC instances.
   7:Core/Src/adc.c ****   ******************************************************************************
   8:Core/Src/adc.c ****   * @attention
   9:Core/Src/adc.c ****   *
  10:Core/Src/adc.c ****   * Copyright (c) 2025 STMicroelectronics.
  11:Core/Src/adc.c ****   * All rights reserved.
  12:Core/Src/adc.c ****   *
  13:Core/Src/adc.c ****   * This software is licensed under terms that can be found in the LICENSE file
  14:Core/Src/adc.c ****   * in the root directory of this software component.
  15:Core/Src/adc.c ****   * If no LICENSE file comes with this software, it is provided AS-IS.
  16:Core/Src/adc.c ****   *
  17:Core/Src/adc.c ****   ******************************************************************************
  18:Core/Src/adc.c ****   */
  19:Core/Src/adc.c **** /* USER CODE END Header */
  20:Core/Src/adc.c **** /* Includes ------------------------------------------------------------------*/
  21:Core/Src/adc.c **** #include "adc.h"
  22:Core/Src/adc.c **** 
  23:Core/Src/adc.c **** /* USER CODE BEGIN 0 */
  24:Core/Src/adc.c **** 
  25:Core/Src/adc.c **** /* USER CODE END 0 */
  26:Core/Src/adc.c **** 
  27:Core/Src/adc.c **** ADC_HandleTypeDef hadc1;
  28:Core/Src/adc.c **** DMA_HandleTypeDef hdma_adc1;
  29:Core/Src/adc.c **** 
  30:Core/Src/adc.c **** /* ADC1 init function */
ARM GAS  C:\Users\alireza\AppData\Local\Temp\ccGw81F6.s 			page 2


  31:Core/Src/adc.c **** void MX_ADC1_Init(void)
  32:Core/Src/adc.c **** {
  29              		.loc 1 32 1 view -0
  30              		.cfi_startproc
  31              		@ args = 0, pretend = 0, frame = 48
  32              		@ frame_needed = 0, uses_anonymous_args = 0
  33 0000 10B5     		push	{r4, lr}
  34              		.cfi_def_cfa_offset 8
  35              		.cfi_offset 4, -8
  36              		.cfi_offset 14, -4
  37 0002 8CB0     		sub	sp, sp, #48
  38              		.cfi_def_cfa_offset 56
  33:Core/Src/adc.c **** 
  34:Core/Src/adc.c ****   /* USER CODE BEGIN ADC1_Init 0 */
  35:Core/Src/adc.c **** 
  36:Core/Src/adc.c ****   /* USER CODE END ADC1_Init 0 */
  37:Core/Src/adc.c **** 
  38:Core/Src/adc.c ****   ADC_ChannelConfTypeDef sConfig = {0};
  39              		.loc 1 38 3 view .LVU1
  40              		.loc 1 38 26 is_stmt 0 view .LVU2
  41 0004 0024     		movs	r4, #0
  42 0006 0894     		str	r4, [sp, #32]
  43 0008 0994     		str	r4, [sp, #36]
  44 000a 0A94     		str	r4, [sp, #40]
  45 000c 0B94     		str	r4, [sp, #44]
  39:Core/Src/adc.c ****   ADC_InjectionConfTypeDef sConfigInjected = {0};
  46              		.loc 1 39 3 is_stmt 1 view .LVU3
  47              		.loc 1 39 28 is_stmt 0 view .LVU4
  48 000e 2022     		movs	r2, #32
  49 0010 2146     		mov	r1, r4
  50 0012 6846     		mov	r0, sp
  51 0014 FFF7FEFF 		bl	memset
  52              	.LVL0:
  40:Core/Src/adc.c **** 
  41:Core/Src/adc.c ****   /* USER CODE BEGIN ADC1_Init 1 */
  42:Core/Src/adc.c **** 
  43:Core/Src/adc.c ****   /* USER CODE END ADC1_Init 1 */
  44:Core/Src/adc.c **** 
  45:Core/Src/adc.c ****   /** Configure the global features of the ADC (Clock, Resolution, Data Alignment and number of con
  46:Core/Src/adc.c ****   */
  47:Core/Src/adc.c ****   hadc1.Instance = ADC1;
  53              		.loc 1 47 3 is_stmt 1 view .LVU5
  54              		.loc 1 47 18 is_stmt 0 view .LVU6
  55 0018 8348     		ldr	r0, .L39
  56 001a 844B     		ldr	r3, .L39+4
  57 001c 0360     		str	r3, [r0]
  48:Core/Src/adc.c ****   hadc1.Init.ClockPrescaler = ADC_CLOCK_SYNC_PCLK_DIV4;
  58              		.loc 1 48 3 is_stmt 1 view .LVU7
  59              		.loc 1 48 29 is_stmt 0 view .LVU8
  60 001e 4FF48033 		mov	r3, #65536
  61 0022 4360     		str	r3, [r0, #4]
  49:Core/Src/adc.c ****   hadc1.Init.Resolution = ADC_RESOLUTION_12B;
  62              		.loc 1 49 3 is_stmt 1 view .LVU9
  63              		.loc 1 49 25 is_stmt 0 view .LVU10
  64 0024 8460     		str	r4, [r0, #8]
  50:Core/Src/adc.c ****   hadc1.Init.ScanConvMode = ENABLE;
  65              		.loc 1 50 3 is_stmt 1 view .LVU11
ARM GAS  C:\Users\alireza\AppData\Local\Temp\ccGw81F6.s 			page 3


  66              		.loc 1 50 27 is_stmt 0 view .LVU12
  67 0026 0123     		movs	r3, #1
  68 0028 0361     		str	r3, [r0, #16]
  51:Core/Src/adc.c ****   hadc1.Init.ContinuousConvMode = DISABLE;
  69              		.loc 1 51 3 is_stmt 1 view .LVU13
  70              		.loc 1 51 33 is_stmt 0 view .LVU14
  71 002a 0476     		strb	r4, [r0, #24]
  52:Core/Src/adc.c ****   hadc1.Init.DiscontinuousConvMode = DISABLE;
  72              		.loc 1 52 3 is_stmt 1 view .LVU15
  73              		.loc 1 52 36 is_stmt 0 view .LVU16
  74 002c 80F82040 		strb	r4, [r0, #32]
  53:Core/Src/adc.c ****   hadc1.Init.ExternalTrigConvEdge = ADC_EXTERNALTRIGCONVEDGE_NONE;
  75              		.loc 1 53 3 is_stmt 1 view .LVU17
  76              		.loc 1 53 35 is_stmt 0 view .LVU18
  77 0030 C462     		str	r4, [r0, #44]
  54:Core/Src/adc.c ****   hadc1.Init.ExternalTrigConv = ADC_SOFTWARE_START;
  78              		.loc 1 54 3 is_stmt 1 view .LVU19
  79              		.loc 1 54 31 is_stmt 0 view .LVU20
  80 0032 7F4A     		ldr	r2, .L39+8
  81 0034 8262     		str	r2, [r0, #40]
  55:Core/Src/adc.c ****   hadc1.Init.DataAlign = ADC_DATAALIGN_RIGHT;
  82              		.loc 1 55 3 is_stmt 1 view .LVU21
  83              		.loc 1 55 24 is_stmt 0 view .LVU22
  84 0036 C460     		str	r4, [r0, #12]
  56:Core/Src/adc.c ****   hadc1.Init.NbrOfConversion = 13;
  85              		.loc 1 56 3 is_stmt 1 view .LVU23
  86              		.loc 1 56 30 is_stmt 0 view .LVU24
  87 0038 0D22     		movs	r2, #13
  88 003a C261     		str	r2, [r0, #28]
  57:Core/Src/adc.c ****   hadc1.Init.DMAContinuousRequests = DISABLE;
  89              		.loc 1 57 3 is_stmt 1 view .LVU25
  90              		.loc 1 57 36 is_stmt 0 view .LVU26
  91 003c 80F83040 		strb	r4, [r0, #48]
  58:Core/Src/adc.c ****   hadc1.Init.EOCSelection = ADC_EOC_SINGLE_CONV;
  92              		.loc 1 58 3 is_stmt 1 view .LVU27
  93              		.loc 1 58 27 is_stmt 0 view .LVU28
  94 0040 4361     		str	r3, [r0, #20]
  59:Core/Src/adc.c ****   if (HAL_ADC_Init(&hadc1) != HAL_OK)
  95              		.loc 1 59 3 is_stmt 1 view .LVU29
  96              		.loc 1 59 7 is_stmt 0 view .LVU30
  97 0042 FFF7FEFF 		bl	HAL_ADC_Init
  98              	.LVL1:
  99              		.loc 1 59 6 discriminator 1 view .LVU31
 100 0046 0028     		cmp	r0, #0
 101 0048 40F0B880 		bne	.L21
 102              	.L2:
  60:Core/Src/adc.c ****   {
  61:Core/Src/adc.c ****     Error_Handler();
  62:Core/Src/adc.c ****   }
  63:Core/Src/adc.c **** 
  64:Core/Src/adc.c ****   /** Configure for the selected ADC regular channel its corresponding rank in the sequencer and it
  65:Core/Src/adc.c ****   */
  66:Core/Src/adc.c ****   sConfig.Channel = ADC_CHANNEL_0;
 103              		.loc 1 66 3 is_stmt 1 view .LVU32
 104              		.loc 1 66 19 is_stmt 0 view .LVU33
 105 004c 0023     		movs	r3, #0
 106 004e 0893     		str	r3, [sp, #32]
ARM GAS  C:\Users\alireza\AppData\Local\Temp\ccGw81F6.s 			page 4


  67:Core/Src/adc.c ****   sConfig.Rank = 1;
 107              		.loc 1 67 3 is_stmt 1 view .LVU34
 108              		.loc 1 67 16 is_stmt 0 view .LVU35
 109 0050 0122     		movs	r2, #1
 110 0052 0992     		str	r2, [sp, #36]
  68:Core/Src/adc.c ****   sConfig.SamplingTime = ADC_SAMPLETIME_3CYCLES;
 111              		.loc 1 68 3 is_stmt 1 view .LVU36
 112              		.loc 1 68 24 is_stmt 0 view .LVU37
 113 0054 0A93     		str	r3, [sp, #40]
  69:Core/Src/adc.c ****   if (HAL_ADC_ConfigChannel(&hadc1, &sConfig) != HAL_OK)
 114              		.loc 1 69 3 is_stmt 1 view .LVU38
 115              		.loc 1 69 7 is_stmt 0 view .LVU39
 116 0056 08A9     		add	r1, sp, #32
 117 0058 7348     		ldr	r0, .L39
 118 005a FFF7FEFF 		bl	HAL_ADC_ConfigChannel
 119              	.LVL2:
 120              		.loc 1 69 6 discriminator 1 view .LVU40
 121 005e 0028     		cmp	r0, #0
 122 0060 40F0AF80 		bne	.L22
 123              	.L3:
  70:Core/Src/adc.c ****   {
  71:Core/Src/adc.c ****     Error_Handler();
  72:Core/Src/adc.c ****   }
  73:Core/Src/adc.c **** 
  74:Core/Src/adc.c ****   /** Configure for the selected ADC regular channel its corresponding rank in the sequencer and it
  75:Core/Src/adc.c ****   */
  76:Core/Src/adc.c ****   sConfig.Channel = ADC_CHANNEL_1;
 124              		.loc 1 76 3 is_stmt 1 view .LVU41
 125              		.loc 1 76 19 is_stmt 0 view .LVU42
 126 0064 0123     		movs	r3, #1
 127 0066 0893     		str	r3, [sp, #32]
  77:Core/Src/adc.c ****   sConfig.Rank = 2;
 128              		.loc 1 77 3 is_stmt 1 view .LVU43
 129              		.loc 1 77 16 is_stmt 0 view .LVU44
 130 0068 0223     		movs	r3, #2
 131 006a 0993     		str	r3, [sp, #36]
  78:Core/Src/adc.c ****   if (HAL_ADC_ConfigChannel(&hadc1, &sConfig) != HAL_OK)
 132              		.loc 1 78 3 is_stmt 1 view .LVU45
 133              		.loc 1 78 7 is_stmt 0 view .LVU46
 134 006c 08A9     		add	r1, sp, #32
 135 006e 6E48     		ldr	r0, .L39
 136 0070 FFF7FEFF 		bl	HAL_ADC_ConfigChannel
 137              	.LVL3:
 138              		.loc 1 78 6 discriminator 1 view .LVU47
 139 0074 0028     		cmp	r0, #0
 140 0076 40F0A780 		bne	.L23
 141              	.L4:
  79:Core/Src/adc.c ****   {
  80:Core/Src/adc.c ****     Error_Handler();
  81:Core/Src/adc.c ****   }
  82:Core/Src/adc.c **** 
  83:Core/Src/adc.c ****   /** Configure for the selected ADC regular channel its corresponding rank in the sequencer and it
  84:Core/Src/adc.c ****   */
  85:Core/Src/adc.c ****   sConfig.Channel = ADC_CHANNEL_2;
 142              		.loc 1 85 3 is_stmt 1 view .LVU48
 143              		.loc 1 85 19 is_stmt 0 view .LVU49
 144 007a 0223     		movs	r3, #2
ARM GAS  C:\Users\alireza\AppData\Local\Temp\ccGw81F6.s 			page 5


 145 007c 0893     		str	r3, [sp, #32]
  86:Core/Src/adc.c ****   sConfig.Rank = 3;
 146              		.loc 1 86 3 is_stmt 1 view .LVU50
 147              		.loc 1 86 16 is_stmt 0 view .LVU51
 148 007e 0323     		movs	r3, #3
 149 0080 0993     		str	r3, [sp, #36]
  87:Core/Src/adc.c ****   if (HAL_ADC_ConfigChannel(&hadc1, &sConfig) != HAL_OK)
 150              		.loc 1 87 3 is_stmt 1 view .LVU52
 151              		.loc 1 87 7 is_stmt 0 view .LVU53
 152 0082 08A9     		add	r1, sp, #32
 153 0084 6848     		ldr	r0, .L39
 154 0086 FFF7FEFF 		bl	HAL_ADC_ConfigChannel
 155              	.LVL4:
 156              		.loc 1 87 6 discriminator 1 view .LVU54
 157 008a 0028     		cmp	r0, #0
 158 008c 40F09F80 		bne	.L24
 159              	.L5:
  88:Core/Src/adc.c ****   {
  89:Core/Src/adc.c ****     Error_Handler();
  90:Core/Src/adc.c ****   }
  91:Core/Src/adc.c **** 
  92:Core/Src/adc.c ****   /** Configure for the selected ADC regular channel its corresponding rank in the sequencer and it
  93:Core/Src/adc.c ****   */
  94:Core/Src/adc.c ****   sConfig.Channel = ADC_CHANNEL_3;
 160              		.loc 1 94 3 is_stmt 1 view .LVU55
 161              		.loc 1 94 19 is_stmt 0 view .LVU56
 162 0090 0323     		movs	r3, #3
 163 0092 0893     		str	r3, [sp, #32]
  95:Core/Src/adc.c ****   sConfig.Rank = 4;
 164              		.loc 1 95 3 is_stmt 1 view .LVU57
 165              		.loc 1 95 16 is_stmt 0 view .LVU58
 166 0094 0423     		movs	r3, #4
 167 0096 0993     		str	r3, [sp, #36]
  96:Core/Src/adc.c ****   if (HAL_ADC_ConfigChannel(&hadc1, &sConfig) != HAL_OK)
 168              		.loc 1 96 3 is_stmt 1 view .LVU59
 169              		.loc 1 96 7 is_stmt 0 view .LVU60
 170 0098 08A9     		add	r1, sp, #32
 171 009a 6348     		ldr	r0, .L39
 172 009c FFF7FEFF 		bl	HAL_ADC_ConfigChannel
 173              	.LVL5:
 174              		.loc 1 96 6 discriminator 1 view .LVU61
 175 00a0 0028     		cmp	r0, #0
 176 00a2 40F09780 		bne	.L25
 177              	.L6:
  97:Core/Src/adc.c ****   {
  98:Core/Src/adc.c ****     Error_Handler();
  99:Core/Src/adc.c ****   }
 100:Core/Src/adc.c **** 
 101:Core/Src/adc.c ****   /** Configure for the selected ADC regular channel its corresponding rank in the sequencer and it
 102:Core/Src/adc.c ****   */
 103:Core/Src/adc.c ****   sConfig.Channel = ADC_CHANNEL_4;
 178              		.loc 1 103 3 is_stmt 1 view .LVU62
 179              		.loc 1 103 19 is_stmt 0 view .LVU63
 180 00a6 0423     		movs	r3, #4
 181 00a8 0893     		str	r3, [sp, #32]
 104:Core/Src/adc.c ****   sConfig.Rank = 5;
 182              		.loc 1 104 3 is_stmt 1 view .LVU64
ARM GAS  C:\Users\alireza\AppData\Local\Temp\ccGw81F6.s 			page 6


 183              		.loc 1 104 16 is_stmt 0 view .LVU65
 184 00aa 0523     		movs	r3, #5
 185 00ac 0993     		str	r3, [sp, #36]
 105:Core/Src/adc.c ****   if (HAL_ADC_ConfigChannel(&hadc1, &sConfig) != HAL_OK)
 186              		.loc 1 105 3 is_stmt 1 view .LVU66
 187              		.loc 1 105 7 is_stmt 0 view .LVU67
 188 00ae 08A9     		add	r1, sp, #32
 189 00b0 5D48     		ldr	r0, .L39
 190 00b2 FFF7FEFF 		bl	HAL_ADC_ConfigChannel
 191              	.LVL6:
 192              		.loc 1 105 6 discriminator 1 view .LVU68
 193 00b6 0028     		cmp	r0, #0
 194 00b8 40F08F80 		bne	.L26
 195              	.L7:
 106:Core/Src/adc.c ****   {
 107:Core/Src/adc.c ****     Error_Handler();
 108:Core/Src/adc.c ****   }
 109:Core/Src/adc.c **** 
 110:Core/Src/adc.c ****   /** Configure for the selected ADC regular channel its corresponding rank in the sequencer and it
 111:Core/Src/adc.c ****   */
 112:Core/Src/adc.c ****   sConfig.Channel = ADC_CHANNEL_5;
 196              		.loc 1 112 3 is_stmt 1 view .LVU69
 197              		.loc 1 112 19 is_stmt 0 view .LVU70
 198 00bc 0523     		movs	r3, #5
 199 00be 0893     		str	r3, [sp, #32]
 113:Core/Src/adc.c ****   sConfig.Rank = 6;
 200              		.loc 1 113 3 is_stmt 1 view .LVU71
 201              		.loc 1 113 16 is_stmt 0 view .LVU72
 202 00c0 0623     		movs	r3, #6
 203 00c2 0993     		str	r3, [sp, #36]
 114:Core/Src/adc.c ****   if (HAL_ADC_ConfigChannel(&hadc1, &sConfig) != HAL_OK)
 204              		.loc 1 114 3 is_stmt 1 view .LVU73
 205              		.loc 1 114 7 is_stmt 0 view .LVU74
 206 00c4 08A9     		add	r1, sp, #32
 207 00c6 5848     		ldr	r0, .L39
 208 00c8 FFF7FEFF 		bl	HAL_ADC_ConfigChannel
 209              	.LVL7:
 210              		.loc 1 114 6 discriminator 1 view .LVU75
 211 00cc 0028     		cmp	r0, #0
 212 00ce 40F08780 		bne	.L27
 213              	.L8:
 115:Core/Src/adc.c ****   {
 116:Core/Src/adc.c ****     Error_Handler();
 117:Core/Src/adc.c ****   }
 118:Core/Src/adc.c **** 
 119:Core/Src/adc.c ****   /** Configure for the selected ADC regular channel its corresponding rank in the sequencer and it
 120:Core/Src/adc.c ****   */
 121:Core/Src/adc.c ****   sConfig.Channel = ADC_CHANNEL_6;
 214              		.loc 1 121 3 is_stmt 1 view .LVU76
 215              		.loc 1 121 19 is_stmt 0 view .LVU77
 216 00d2 0623     		movs	r3, #6
 217 00d4 0893     		str	r3, [sp, #32]
 122:Core/Src/adc.c ****   sConfig.Rank = 7;
 218              		.loc 1 122 3 is_stmt 1 view .LVU78
 219              		.loc 1 122 16 is_stmt 0 view .LVU79
 220 00d6 0723     		movs	r3, #7
 221 00d8 0993     		str	r3, [sp, #36]
ARM GAS  C:\Users\alireza\AppData\Local\Temp\ccGw81F6.s 			page 7


 123:Core/Src/adc.c ****   if (HAL_ADC_ConfigChannel(&hadc1, &sConfig) != HAL_OK)
 222              		.loc 1 123 3 is_stmt 1 view .LVU80
 223              		.loc 1 123 7 is_stmt 0 view .LVU81
 224 00da 08A9     		add	r1, sp, #32
 225 00dc 5248     		ldr	r0, .L39
 226 00de FFF7FEFF 		bl	HAL_ADC_ConfigChannel
 227              	.LVL8:
 228              		.loc 1 123 6 discriminator 1 view .LVU82
 229 00e2 0028     		cmp	r0, #0
 230 00e4 7FD1     		bne	.L28
 231              	.L9:
 124:Core/Src/adc.c ****   {
 125:Core/Src/adc.c ****     Error_Handler();
 126:Core/Src/adc.c ****   }
 127:Core/Src/adc.c **** 
 128:Core/Src/adc.c ****   /** Configure for the selected ADC regular channel its corresponding rank in the sequencer and it
 129:Core/Src/adc.c ****   */
 130:Core/Src/adc.c ****   sConfig.Channel = ADC_CHANNEL_7;
 232              		.loc 1 130 3 is_stmt 1 view .LVU83
 233              		.loc 1 130 19 is_stmt 0 view .LVU84
 234 00e6 0723     		movs	r3, #7
 235 00e8 0893     		str	r3, [sp, #32]
 131:Core/Src/adc.c ****   sConfig.Rank = 8;
 236              		.loc 1 131 3 is_stmt 1 view .LVU85
 237              		.loc 1 131 16 is_stmt 0 view .LVU86
 238 00ea 0823     		movs	r3, #8
 239 00ec 0993     		str	r3, [sp, #36]
 132:Core/Src/adc.c ****   if (HAL_ADC_ConfigChannel(&hadc1, &sConfig) != HAL_OK)
 240              		.loc 1 132 3 is_stmt 1 view .LVU87
 241              		.loc 1 132 7 is_stmt 0 view .LVU88
 242 00ee 08A9     		add	r1, sp, #32
 243 00f0 4D48     		ldr	r0, .L39
 244 00f2 FFF7FEFF 		bl	HAL_ADC_ConfigChannel
 245              	.LVL9:
 246              		.loc 1 132 6 discriminator 1 view .LVU89
 247 00f6 0028     		cmp	r0, #0
 248 00f8 78D1     		bne	.L29
 249              	.L10:
 133:Core/Src/adc.c ****   {
 134:Core/Src/adc.c ****     Error_Handler();
 135:Core/Src/adc.c ****   }
 136:Core/Src/adc.c **** 
 137:Core/Src/adc.c ****   /** Configure for the selected ADC regular channel its corresponding rank in the sequencer and it
 138:Core/Src/adc.c ****   */
 139:Core/Src/adc.c ****   sConfig.Channel = ADC_CHANNEL_14;
 250              		.loc 1 139 3 is_stmt 1 view .LVU90
 251              		.loc 1 139 19 is_stmt 0 view .LVU91
 252 00fa 0E23     		movs	r3, #14
 253 00fc 0893     		str	r3, [sp, #32]
 140:Core/Src/adc.c ****   sConfig.Rank = 9;
 254              		.loc 1 140 3 is_stmt 1 view .LVU92
 255              		.loc 1 140 16 is_stmt 0 view .LVU93
 256 00fe 0923     		movs	r3, #9
 257 0100 0993     		str	r3, [sp, #36]
 141:Core/Src/adc.c ****   if (HAL_ADC_ConfigChannel(&hadc1, &sConfig) != HAL_OK)
 258              		.loc 1 141 3 is_stmt 1 view .LVU94
 259              		.loc 1 141 7 is_stmt 0 view .LVU95
ARM GAS  C:\Users\alireza\AppData\Local\Temp\ccGw81F6.s 			page 8


 260 0102 08A9     		add	r1, sp, #32
 261 0104 4848     		ldr	r0, .L39
 262 0106 FFF7FEFF 		bl	HAL_ADC_ConfigChannel
 263              	.LVL10:
 264              		.loc 1 141 6 discriminator 1 view .LVU96
 265 010a 0028     		cmp	r0, #0
 266 010c 71D1     		bne	.L30
 267              	.L11:
 142:Core/Src/adc.c ****   {
 143:Core/Src/adc.c ****     Error_Handler();
 144:Core/Src/adc.c ****   }
 145:Core/Src/adc.c **** 
 146:Core/Src/adc.c ****   /** Configure for the selected ADC regular channel its corresponding rank in the sequencer and it
 147:Core/Src/adc.c ****   */
 148:Core/Src/adc.c ****   sConfig.Channel = ADC_CHANNEL_10;
 268              		.loc 1 148 3 is_stmt 1 view .LVU97
 269              		.loc 1 148 19 is_stmt 0 view .LVU98
 270 010e 0A23     		movs	r3, #10
 271 0110 0893     		str	r3, [sp, #32]
 149:Core/Src/adc.c ****   sConfig.Rank = 10;
 272              		.loc 1 149 3 is_stmt 1 view .LVU99
 273              		.loc 1 149 16 is_stmt 0 view .LVU100
 274 0112 0993     		str	r3, [sp, #36]
 150:Core/Src/adc.c ****   if (HAL_ADC_ConfigChannel(&hadc1, &sConfig) != HAL_OK)
 275              		.loc 1 150 3 is_stmt 1 view .LVU101
 276              		.loc 1 150 7 is_stmt 0 view .LVU102
 277 0114 08A9     		add	r1, sp, #32
 278 0116 4448     		ldr	r0, .L39
 279 0118 FFF7FEFF 		bl	HAL_ADC_ConfigChannel
 280              	.LVL11:
 281              		.loc 1 150 6 discriminator 1 view .LVU103
 282 011c 0028     		cmp	r0, #0
 283 011e 6BD1     		bne	.L31
 284              	.L12:
 151:Core/Src/adc.c ****   {
 152:Core/Src/adc.c ****     Error_Handler();
 153:Core/Src/adc.c ****   }
 154:Core/Src/adc.c **** 
 155:Core/Src/adc.c ****   /** Configure for the selected ADC regular channel its corresponding rank in the sequencer and it
 156:Core/Src/adc.c ****   */
 157:Core/Src/adc.c ****   sConfig.Channel = ADC_CHANNEL_11;
 285              		.loc 1 157 3 is_stmt 1 view .LVU104
 286              		.loc 1 157 19 is_stmt 0 view .LVU105
 287 0120 0B23     		movs	r3, #11
 288 0122 0893     		str	r3, [sp, #32]
 158:Core/Src/adc.c ****   sConfig.Rank = 11;
 289              		.loc 1 158 3 is_stmt 1 view .LVU106
 290              		.loc 1 158 16 is_stmt 0 view .LVU107
 291 0124 0993     		str	r3, [sp, #36]
 159:Core/Src/adc.c ****   if (HAL_ADC_ConfigChannel(&hadc1, &sConfig) != HAL_OK)
 292              		.loc 1 159 3 is_stmt 1 view .LVU108
 293              		.loc 1 159 7 is_stmt 0 view .LVU109
 294 0126 08A9     		add	r1, sp, #32
 295 0128 3F48     		ldr	r0, .L39
 296 012a FFF7FEFF 		bl	HAL_ADC_ConfigChannel
 297              	.LVL12:
 298              		.loc 1 159 6 discriminator 1 view .LVU110
ARM GAS  C:\Users\alireza\AppData\Local\Temp\ccGw81F6.s 			page 9


 299 012e 0028     		cmp	r0, #0
 300 0130 65D1     		bne	.L32
 301              	.L13:
 160:Core/Src/adc.c ****   {
 161:Core/Src/adc.c ****     Error_Handler();
 162:Core/Src/adc.c ****   }
 163:Core/Src/adc.c **** 
 164:Core/Src/adc.c ****   /** Configure for the selected ADC regular channel its corresponding rank in the sequencer and it
 165:Core/Src/adc.c ****   */
 166:Core/Src/adc.c ****   sConfig.Channel = ADC_CHANNEL_12;
 302              		.loc 1 166 3 is_stmt 1 view .LVU111
 303              		.loc 1 166 19 is_stmt 0 view .LVU112
 304 0132 0C23     		movs	r3, #12
 305 0134 0893     		str	r3, [sp, #32]
 167:Core/Src/adc.c ****   sConfig.Rank = 12;
 306              		.loc 1 167 3 is_stmt 1 view .LVU113
 307              		.loc 1 167 16 is_stmt 0 view .LVU114
 308 0136 0993     		str	r3, [sp, #36]
 168:Core/Src/adc.c ****   if (HAL_ADC_ConfigChannel(&hadc1, &sConfig) != HAL_OK)
 309              		.loc 1 168 3 is_stmt 1 view .LVU115
 310              		.loc 1 168 7 is_stmt 0 view .LVU116
 311 0138 08A9     		add	r1, sp, #32
 312 013a 3B48     		ldr	r0, .L39
 313 013c FFF7FEFF 		bl	HAL_ADC_ConfigChannel
 314              	.LVL13:
 315              		.loc 1 168 6 discriminator 1 view .LVU117
 316 0140 0028     		cmp	r0, #0
 317 0142 5FD1     		bne	.L33
 318              	.L14:
 169:Core/Src/adc.c ****   {
 170:Core/Src/adc.c ****     Error_Handler();
 171:Core/Src/adc.c ****   }
 172:Core/Src/adc.c **** 
 173:Core/Src/adc.c ****   /** Configure for the selected ADC regular channel its corresponding rank in the sequencer and it
 174:Core/Src/adc.c ****   */
 175:Core/Src/adc.c ****   sConfig.Channel = ADC_CHANNEL_13;
 319              		.loc 1 175 3 is_stmt 1 view .LVU118
 320              		.loc 1 175 19 is_stmt 0 view .LVU119
 321 0144 0D23     		movs	r3, #13
 322 0146 0893     		str	r3, [sp, #32]
 176:Core/Src/adc.c ****   sConfig.Rank = 13;
 323              		.loc 1 176 3 is_stmt 1 view .LVU120
 324              		.loc 1 176 16 is_stmt 0 view .LVU121
 325 0148 0993     		str	r3, [sp, #36]
 177:Core/Src/adc.c ****   if (HAL_ADC_ConfigChannel(&hadc1, &sConfig) != HAL_OK)
 326              		.loc 1 177 3 is_stmt 1 view .LVU122
 327              		.loc 1 177 7 is_stmt 0 view .LVU123
 328 014a 08A9     		add	r1, sp, #32
 329 014c 3648     		ldr	r0, .L39
 330 014e FFF7FEFF 		bl	HAL_ADC_ConfigChannel
 331              	.LVL14:
 332              		.loc 1 177 6 discriminator 1 view .LVU124
 333 0152 0028     		cmp	r0, #0
 334 0154 59D1     		bne	.L34
 335              	.L15:
 178:Core/Src/adc.c ****   {
 179:Core/Src/adc.c ****     Error_Handler();
ARM GAS  C:\Users\alireza\AppData\Local\Temp\ccGw81F6.s 			page 10


 180:Core/Src/adc.c ****   }
 181:Core/Src/adc.c **** 
 182:Core/Src/adc.c ****   /** Configures for the selected ADC injected channel its corresponding rank in the sequencer and 
 183:Core/Src/adc.c ****   */
 184:Core/Src/adc.c ****   sConfigInjected.InjectedChannel = ADC_CHANNEL_0;
 336              		.loc 1 184 3 is_stmt 1 view .LVU125
 337              		.loc 1 184 35 is_stmt 0 view .LVU126
 338 0156 0023     		movs	r3, #0
 339 0158 0093     		str	r3, [sp]
 185:Core/Src/adc.c ****   sConfigInjected.InjectedRank = 1;
 340              		.loc 1 185 3 is_stmt 1 view .LVU127
 341              		.loc 1 185 32 is_stmt 0 view .LVU128
 342 015a 0122     		movs	r2, #1
 343 015c 0192     		str	r2, [sp, #4]
 186:Core/Src/adc.c ****   sConfigInjected.InjectedNbrOfConversion = 4;
 344              		.loc 1 186 3 is_stmt 1 view .LVU129
 345              		.loc 1 186 43 is_stmt 0 view .LVU130
 346 015e 0422     		movs	r2, #4
 347 0160 0492     		str	r2, [sp, #16]
 187:Core/Src/adc.c ****   sConfigInjected.InjectedSamplingTime = ADC_SAMPLETIME_3CYCLES;
 348              		.loc 1 187 3 is_stmt 1 view .LVU131
 349              		.loc 1 187 40 is_stmt 0 view .LVU132
 350 0162 0293     		str	r3, [sp, #8]
 188:Core/Src/adc.c ****   sConfigInjected.ExternalTrigInjecConvEdge = ADC_EXTERNALTRIGINJECCONVEDGE_NONE;
 351              		.loc 1 188 3 is_stmt 1 view .LVU133
 352              		.loc 1 188 45 is_stmt 0 view .LVU134
 353 0164 0793     		str	r3, [sp, #28]
 189:Core/Src/adc.c ****   sConfigInjected.ExternalTrigInjecConv = ADC_INJECTED_SOFTWARE_START;
 354              		.loc 1 189 3 is_stmt 1 view .LVU135
 355              		.loc 1 189 41 is_stmt 0 view .LVU136
 356 0166 334A     		ldr	r2, .L39+12
 357 0168 0692     		str	r2, [sp, #24]
 190:Core/Src/adc.c ****   sConfigInjected.AutoInjectedConv = DISABLE;
 358              		.loc 1 190 3 is_stmt 1 view .LVU137
 359              		.loc 1 190 36 is_stmt 0 view .LVU138
 360 016a 8DF81530 		strb	r3, [sp, #21]
 191:Core/Src/adc.c ****   sConfigInjected.InjectedDiscontinuousConvMode = DISABLE;
 361              		.loc 1 191 3 is_stmt 1 view .LVU139
 362              		.loc 1 191 49 is_stmt 0 view .LVU140
 363 016e 8DF81430 		strb	r3, [sp, #20]
 192:Core/Src/adc.c ****   sConfigInjected.InjectedOffset = 0;
 364              		.loc 1 192 3 is_stmt 1 view .LVU141
 365              		.loc 1 192 34 is_stmt 0 view .LVU142
 366 0172 0393     		str	r3, [sp, #12]
 193:Core/Src/adc.c ****   if (HAL_ADCEx_InjectedConfigChannel(&hadc1, &sConfigInjected) != HAL_OK)
 367              		.loc 1 193 3 is_stmt 1 view .LVU143
 368              		.loc 1 193 7 is_stmt 0 view .LVU144
 369 0174 6946     		mov	r1, sp
 370 0176 2C48     		ldr	r0, .L39
 371 0178 FFF7FEFF 		bl	HAL_ADCEx_InjectedConfigChannel
 372              	.LVL15:
 373              		.loc 1 193 6 discriminator 1 view .LVU145
 374 017c 0028     		cmp	r0, #0
 375 017e 47D1     		bne	.L35
 376              	.L16:
 194:Core/Src/adc.c ****   {
 195:Core/Src/adc.c ****     Error_Handler();
ARM GAS  C:\Users\alireza\AppData\Local\Temp\ccGw81F6.s 			page 11


 196:Core/Src/adc.c ****   }
 197:Core/Src/adc.c **** 
 198:Core/Src/adc.c ****   /** Configures for the selected ADC injected channel its corresponding rank in the sequencer and 
 199:Core/Src/adc.c ****   */
 200:Core/Src/adc.c ****   sConfigInjected.InjectedChannel = ADC_CHANNEL_1;
 377              		.loc 1 200 3 is_stmt 1 view .LVU146
 378              		.loc 1 200 35 is_stmt 0 view .LVU147
 379 0180 0123     		movs	r3, #1
 380 0182 0093     		str	r3, [sp]
 201:Core/Src/adc.c ****   sConfigInjected.InjectedRank = 2;
 381              		.loc 1 201 3 is_stmt 1 view .LVU148
 382              		.loc 1 201 32 is_stmt 0 view .LVU149
 383 0184 0223     		movs	r3, #2
 384 0186 0193     		str	r3, [sp, #4]
 202:Core/Src/adc.c ****   if (HAL_ADCEx_InjectedConfigChannel(&hadc1, &sConfigInjected) != HAL_OK)
 385              		.loc 1 202 3 is_stmt 1 view .LVU150
 386              		.loc 1 202 7 is_stmt 0 view .LVU151
 387 0188 6946     		mov	r1, sp
 388 018a 2748     		ldr	r0, .L39
 389 018c FFF7FEFF 		bl	HAL_ADCEx_InjectedConfigChannel
 390              	.LVL16:
 391              		.loc 1 202 6 discriminator 1 view .LVU152
 392 0190 0028     		cmp	r0, #0
 393 0192 40D1     		bne	.L36
 394              	.L17:
 203:Core/Src/adc.c ****   {
 204:Core/Src/adc.c ****     Error_Handler();
 205:Core/Src/adc.c ****   }
 206:Core/Src/adc.c **** 
 207:Core/Src/adc.c ****   /** Configures for the selected ADC injected channel its corresponding rank in the sequencer and 
 208:Core/Src/adc.c ****   */
 209:Core/Src/adc.c ****   sConfigInjected.InjectedChannel = ADC_CHANNEL_2;
 395              		.loc 1 209 3 is_stmt 1 view .LVU153
 396              		.loc 1 209 35 is_stmt 0 view .LVU154
 397 0194 0223     		movs	r3, #2
 398 0196 0093     		str	r3, [sp]
 210:Core/Src/adc.c ****   sConfigInjected.InjectedRank = 3;
 399              		.loc 1 210 3 is_stmt 1 view .LVU155
 400              		.loc 1 210 32 is_stmt 0 view .LVU156
 401 0198 0323     		movs	r3, #3
 402 019a 0193     		str	r3, [sp, #4]
 211:Core/Src/adc.c ****   if (HAL_ADCEx_InjectedConfigChannel(&hadc1, &sConfigInjected) != HAL_OK)
 403              		.loc 1 211 3 is_stmt 1 view .LVU157
 404              		.loc 1 211 7 is_stmt 0 view .LVU158
 405 019c 6946     		mov	r1, sp
 406 019e 2248     		ldr	r0, .L39
 407 01a0 FFF7FEFF 		bl	HAL_ADCEx_InjectedConfigChannel
 408              	.LVL17:
 409              		.loc 1 211 6 discriminator 1 view .LVU159
 410 01a4 D0BB     		cbnz	r0, .L37
 411              	.L18:
 212:Core/Src/adc.c ****   {
 213:Core/Src/adc.c ****     Error_Handler();
 214:Core/Src/adc.c ****   }
 215:Core/Src/adc.c **** 
 216:Core/Src/adc.c ****   /** Configures for the selected ADC injected channel its corresponding rank in the sequencer and 
 217:Core/Src/adc.c ****   */
ARM GAS  C:\Users\alireza\AppData\Local\Temp\ccGw81F6.s 			page 12


 218:Core/Src/adc.c ****   sConfigInjected.InjectedChannel = ADC_CHANNEL_3;
 412              		.loc 1 218 3 is_stmt 1 view .LVU160
 413              		.loc 1 218 35 is_stmt 0 view .LVU161
 414 01a6 0323     		movs	r3, #3
 415 01a8 0093     		str	r3, [sp]
 219:Core/Src/adc.c ****   sConfigInjected.InjectedRank = 4;
 416              		.loc 1 219 3 is_stmt 1 view .LVU162
 417              		.loc 1 219 32 is_stmt 0 view .LVU163
 418 01aa 0423     		movs	r3, #4
 419 01ac 0193     		str	r3, [sp, #4]
 220:Core/Src/adc.c ****   if (HAL_ADCEx_InjectedConfigChannel(&hadc1, &sConfigInjected) != HAL_OK)
 420              		.loc 1 220 3 is_stmt 1 view .LVU164
 421              		.loc 1 220 7 is_stmt 0 view .LVU165
 422 01ae 6946     		mov	r1, sp
 423 01b0 1D48     		ldr	r0, .L39
 424 01b2 FFF7FEFF 		bl	HAL_ADCEx_InjectedConfigChannel
 425              	.LVL18:
 426              		.loc 1 220 6 discriminator 1 view .LVU166
 427 01b6 A0BB     		cbnz	r0, .L38
 428              	.L1:
 221:Core/Src/adc.c ****   {
 222:Core/Src/adc.c ****     Error_Handler();
 223:Core/Src/adc.c ****   }
 224:Core/Src/adc.c ****   /* USER CODE BEGIN ADC1_Init 2 */
 225:Core/Src/adc.c **** 
 226:Core/Src/adc.c ****   /* USER CODE END ADC1_Init 2 */
 227:Core/Src/adc.c **** 
 228:Core/Src/adc.c **** }
 429              		.loc 1 228 1 view .LVU167
 430 01b8 0CB0     		add	sp, sp, #48
 431              		.cfi_remember_state
 432              		.cfi_def_cfa_offset 8
 433              		@ sp needed
 434 01ba 10BD     		pop	{r4, pc}
 435              	.L21:
 436              		.cfi_restore_state
  61:Core/Src/adc.c ****   }
 437              		.loc 1 61 5 is_stmt 1 view .LVU168
 438 01bc FFF7FEFF 		bl	Error_Handler
 439              	.LVL19:
 440 01c0 44E7     		b	.L2
 441              	.L22:
  71:Core/Src/adc.c ****   }
 442              		.loc 1 71 5 view .LVU169
 443 01c2 FFF7FEFF 		bl	Error_Handler
 444              	.LVL20:
 445 01c6 4DE7     		b	.L3
 446              	.L23:
  80:Core/Src/adc.c ****   }
 447              		.loc 1 80 5 view .LVU170
 448 01c8 FFF7FEFF 		bl	Error_Handler
 449              	.LVL21:
 450 01cc 55E7     		b	.L4
 451              	.L24:
  89:Core/Src/adc.c ****   }
 452              		.loc 1 89 5 view .LVU171
 453 01ce FFF7FEFF 		bl	Error_Handler
ARM GAS  C:\Users\alireza\AppData\Local\Temp\ccGw81F6.s 			page 13


 454              	.LVL22:
 455 01d2 5DE7     		b	.L5
 456              	.L25:
  98:Core/Src/adc.c ****   }
 457              		.loc 1 98 5 view .LVU172
 458 01d4 FFF7FEFF 		bl	Error_Handler
 459              	.LVL23:
 460 01d8 65E7     		b	.L6
 461              	.L26:
 107:Core/Src/adc.c ****   }
 462              		.loc 1 107 5 view .LVU173
 463 01da FFF7FEFF 		bl	Error_Handler
 464              	.LVL24:
 465 01de 6DE7     		b	.L7
 466              	.L27:
 116:Core/Src/adc.c ****   }
 467              		.loc 1 116 5 view .LVU174
 468 01e0 FFF7FEFF 		bl	Error_Handler
 469              	.LVL25:
 470 01e4 75E7     		b	.L8
 471              	.L28:
 125:Core/Src/adc.c ****   }
 472              		.loc 1 125 5 view .LVU175
 473 01e6 FFF7FEFF 		bl	Error_Handler
 474              	.LVL26:
 475 01ea 7CE7     		b	.L9
 476              	.L29:
 134:Core/Src/adc.c ****   }
 477              		.loc 1 134 5 view .LVU176
 478 01ec FFF7FEFF 		bl	Error_Handler
 479              	.LVL27:
 480 01f0 83E7     		b	.L10
 481              	.L30:
 143:Core/Src/adc.c ****   }
 482              		.loc 1 143 5 view .LVU177
 483 01f2 FFF7FEFF 		bl	Error_Handler
 484              	.LVL28:
 485 01f6 8AE7     		b	.L11
 486              	.L31:
 152:Core/Src/adc.c ****   }
 487              		.loc 1 152 5 view .LVU178
 488 01f8 FFF7FEFF 		bl	Error_Handler
 489              	.LVL29:
 490 01fc 90E7     		b	.L12
 491              	.L32:
 161:Core/Src/adc.c ****   }
 492              		.loc 1 161 5 view .LVU179
 493 01fe FFF7FEFF 		bl	Error_Handler
 494              	.LVL30:
 495 0202 96E7     		b	.L13
 496              	.L33:
 170:Core/Src/adc.c ****   }
 497              		.loc 1 170 5 view .LVU180
 498 0204 FFF7FEFF 		bl	Error_Handler
 499              	.LVL31:
 500 0208 9CE7     		b	.L14
 501              	.L34:
ARM GAS  C:\Users\alireza\AppData\Local\Temp\ccGw81F6.s 			page 14


 179:Core/Src/adc.c ****   }
 502              		.loc 1 179 5 view .LVU181
 503 020a FFF7FEFF 		bl	Error_Handler
 504              	.LVL32:
 505 020e A2E7     		b	.L15
 506              	.L35:
 195:Core/Src/adc.c ****   }
 507              		.loc 1 195 5 view .LVU182
 508 0210 FFF7FEFF 		bl	Error_Handler
 509              	.LVL33:
 510 0214 B4E7     		b	.L16
 511              	.L36:
 204:Core/Src/adc.c ****   }
 512              		.loc 1 204 5 view .LVU183
 513 0216 FFF7FEFF 		bl	Error_Handler
 514              	.LVL34:
 515 021a BBE7     		b	.L17
 516              	.L37:
 213:Core/Src/adc.c ****   }
 517              		.loc 1 213 5 view .LVU184
 518 021c FFF7FEFF 		bl	Error_Handler
 519              	.LVL35:
 520 0220 C1E7     		b	.L18
 521              	.L38:
 222:Core/Src/adc.c ****   }
 522              		.loc 1 222 5 view .LVU185
 523 0222 FFF7FEFF 		bl	Error_Handler
 524              	.LVL36:
 525              		.loc 1 228 1 is_stmt 0 view .LVU186
 526 0226 C7E7     		b	.L1
 527              	.L40:
 528              		.align	2
 529              	.L39:
 530 0228 00000000 		.word	hadc1
 531 022c 00200140 		.word	1073815552
 532 0230 0100000F 		.word	251658241
 533 0234 01000F00 		.word	983041
 534              		.cfi_endproc
 535              	.LFE220:
 537              		.section	.text.HAL_ADC_MspInit,"ax",%progbits
 538              		.align	1
 539              		.global	HAL_ADC_MspInit
 540              		.syntax unified
 541              		.thumb
 542              		.thumb_func
 544              	HAL_ADC_MspInit:
 545              	.LVL37:
 546              	.LFB221:
 229:Core/Src/adc.c **** 
 230:Core/Src/adc.c **** void HAL_ADC_MspInit(ADC_HandleTypeDef* adcHandle)
 231:Core/Src/adc.c **** {
 547              		.loc 1 231 1 is_stmt 1 view -0
 548              		.cfi_startproc
 549              		@ args = 0, pretend = 0, frame = 32
 550              		@ frame_needed = 0, uses_anonymous_args = 0
 551              		.loc 1 231 1 is_stmt 0 view .LVU188
 552 0000 F0B5     		push	{r4, r5, r6, r7, lr}
ARM GAS  C:\Users\alireza\AppData\Local\Temp\ccGw81F6.s 			page 15


 553              		.cfi_def_cfa_offset 20
 554              		.cfi_offset 4, -20
 555              		.cfi_offset 5, -16
 556              		.cfi_offset 6, -12
 557              		.cfi_offset 7, -8
 558              		.cfi_offset 14, -4
 559 0002 89B0     		sub	sp, sp, #36
 560              		.cfi_def_cfa_offset 56
 232:Core/Src/adc.c **** 
 233:Core/Src/adc.c ****   GPIO_InitTypeDef GPIO_InitStruct = {0};
 561              		.loc 1 233 3 is_stmt 1 view .LVU189
 562              		.loc 1 233 20 is_stmt 0 view .LVU190
 563 0004 0023     		movs	r3, #0
 564 0006 0393     		str	r3, [sp, #12]
 565 0008 0493     		str	r3, [sp, #16]
 566 000a 0593     		str	r3, [sp, #20]
 567 000c 0693     		str	r3, [sp, #24]
 568 000e 0793     		str	r3, [sp, #28]
 234:Core/Src/adc.c ****   if(adcHandle->Instance==ADC1)
 569              		.loc 1 234 3 is_stmt 1 view .LVU191
 570              		.loc 1 234 15 is_stmt 0 view .LVU192
 571 0010 0268     		ldr	r2, [r0]
 572              		.loc 1 234 5 view .LVU193
 573 0012 03F18043 		add	r3, r3, #1073741824
 574 0016 03F59033 		add	r3, r3, #73728
 575 001a 9A42     		cmp	r2, r3
 576 001c 01D0     		beq	.L45
 577              	.LVL38:
 578              	.L41:
 235:Core/Src/adc.c ****   {
 236:Core/Src/adc.c ****   /* USER CODE BEGIN ADC1_MspInit 0 */
 237:Core/Src/adc.c **** 
 238:Core/Src/adc.c ****   /* USER CODE END ADC1_MspInit 0 */
 239:Core/Src/adc.c ****     /* ADC1 clock enable */
 240:Core/Src/adc.c ****     __HAL_RCC_ADC1_CLK_ENABLE();
 241:Core/Src/adc.c **** 
 242:Core/Src/adc.c ****     __HAL_RCC_GPIOC_CLK_ENABLE();
 243:Core/Src/adc.c ****     __HAL_RCC_GPIOA_CLK_ENABLE();
 244:Core/Src/adc.c ****     /**ADC1 GPIO Configuration
 245:Core/Src/adc.c ****     PC0     ------> ADC1_IN10
 246:Core/Src/adc.c ****     PC1     ------> ADC1_IN11
 247:Core/Src/adc.c ****     PC2     ------> ADC1_IN12
 248:Core/Src/adc.c ****     PC3     ------> ADC1_IN13
 249:Core/Src/adc.c ****     PA0-WKUP     ------> ADC1_IN0
 250:Core/Src/adc.c ****     PA1     ------> ADC1_IN1
 251:Core/Src/adc.c ****     PA2     ------> ADC1_IN2
 252:Core/Src/adc.c ****     PA3     ------> ADC1_IN3
 253:Core/Src/adc.c ****     PA4     ------> ADC1_IN4
 254:Core/Src/adc.c ****     PA5     ------> ADC1_IN5
 255:Core/Src/adc.c ****     PA6     ------> ADC1_IN6
 256:Core/Src/adc.c ****     PA7     ------> ADC1_IN7
 257:Core/Src/adc.c ****     PC4     ------> ADC1_IN14
 258:Core/Src/adc.c ****     */
 259:Core/Src/adc.c ****     GPIO_InitStruct.Pin = AD_INPUT1_PIN_Pin|AD_INPUT2_PIN_Pin|AD_INPUT3_PIN_Pin|AD_INPUT4_PIN_Pin
 260:Core/Src/adc.c ****                           |VBAT_SENSE_PIN_Pin;
 261:Core/Src/adc.c ****     GPIO_InitStruct.Mode = GPIO_MODE_ANALOG;
 262:Core/Src/adc.c ****     GPIO_InitStruct.Pull = GPIO_NOPULL;
ARM GAS  C:\Users\alireza\AppData\Local\Temp\ccGw81F6.s 			page 16


 263:Core/Src/adc.c ****     HAL_GPIO_Init(GPIOC, &GPIO_InitStruct);
 264:Core/Src/adc.c **** 
 265:Core/Src/adc.c ****     GPIO_InitStruct.Pin = ETB1_SENSE1_Pin|ETB1_SENSE2_Pin|ETB2_SENSE1_Pin|ETB2_SENSE2_Pin
 266:Core/Src/adc.c ****                           |SENSOR_MAP_PIN_Pin|SENSOR_IAT_PIN_Pin|SENSOR_CLT_PIN_Pin|SENSOR_OIL_PIN_
 267:Core/Src/adc.c ****     GPIO_InitStruct.Mode = GPIO_MODE_ANALOG;
 268:Core/Src/adc.c ****     GPIO_InitStruct.Pull = GPIO_NOPULL;
 269:Core/Src/adc.c ****     HAL_GPIO_Init(GPIOA, &GPIO_InitStruct);
 270:Core/Src/adc.c **** 
 271:Core/Src/adc.c ****     /* ADC1 DMA Init */
 272:Core/Src/adc.c ****     /* ADC1 Init */
 273:Core/Src/adc.c ****     hdma_adc1.Instance = DMA2_Stream0;
 274:Core/Src/adc.c ****     hdma_adc1.Init.Channel = DMA_CHANNEL_0;
 275:Core/Src/adc.c ****     hdma_adc1.Init.Direction = DMA_PERIPH_TO_MEMORY;
 276:Core/Src/adc.c ****     hdma_adc1.Init.PeriphInc = DMA_PINC_DISABLE;
 277:Core/Src/adc.c ****     hdma_adc1.Init.MemInc = DMA_MINC_ENABLE;
 278:Core/Src/adc.c ****     hdma_adc1.Init.PeriphDataAlignment = DMA_PDATAALIGN_HALFWORD;
 279:Core/Src/adc.c ****     hdma_adc1.Init.MemDataAlignment = DMA_MDATAALIGN_HALFWORD;
 280:Core/Src/adc.c ****     hdma_adc1.Init.Mode = DMA_NORMAL;
 281:Core/Src/adc.c ****     hdma_adc1.Init.Priority = DMA_PRIORITY_HIGH;
 282:Core/Src/adc.c ****     hdma_adc1.Init.FIFOMode = DMA_FIFOMODE_DISABLE;
 283:Core/Src/adc.c ****     if (HAL_DMA_Init(&hdma_adc1) != HAL_OK)
 284:Core/Src/adc.c ****     {
 285:Core/Src/adc.c ****       Error_Handler();
 286:Core/Src/adc.c ****     }
 287:Core/Src/adc.c **** 
 288:Core/Src/adc.c ****     __HAL_LINKDMA(adcHandle,DMA_Handle,hdma_adc1);
 289:Core/Src/adc.c **** 
 290:Core/Src/adc.c ****   /* USER CODE BEGIN ADC1_MspInit 1 */
 291:Core/Src/adc.c **** 
 292:Core/Src/adc.c ****   /* USER CODE END ADC1_MspInit 1 */
 293:Core/Src/adc.c ****   }
 294:Core/Src/adc.c **** }
 579              		.loc 1 294 1 view .LVU194
 580 001e 09B0     		add	sp, sp, #36
 581              		.cfi_remember_state
 582              		.cfi_def_cfa_offset 20
 583              		@ sp needed
 584 0020 F0BD     		pop	{r4, r5, r6, r7, pc}
 585              	.LVL39:
 586              	.L45:
 587              		.cfi_restore_state
 588              		.loc 1 294 1 view .LVU195
 589 0022 0446     		mov	r4, r0
 240:Core/Src/adc.c **** 
 590              		.loc 1 240 5 is_stmt 1 view .LVU196
 591              	.LBB2:
 240:Core/Src/adc.c **** 
 592              		.loc 1 240 5 view .LVU197
 593 0024 0025     		movs	r5, #0
 594 0026 0095     		str	r5, [sp]
 240:Core/Src/adc.c **** 
 595              		.loc 1 240 5 view .LVU198
 596 0028 03F58C33 		add	r3, r3, #71680
 597 002c 5A6C     		ldr	r2, [r3, #68]
 598 002e 42F48072 		orr	r2, r2, #256
 599 0032 5A64     		str	r2, [r3, #68]
 240:Core/Src/adc.c **** 
ARM GAS  C:\Users\alireza\AppData\Local\Temp\ccGw81F6.s 			page 17


 600              		.loc 1 240 5 view .LVU199
 601 0034 5A6C     		ldr	r2, [r3, #68]
 602 0036 02F48072 		and	r2, r2, #256
 603 003a 0092     		str	r2, [sp]
 240:Core/Src/adc.c **** 
 604              		.loc 1 240 5 view .LVU200
 605 003c 009A     		ldr	r2, [sp]
 606              	.LBE2:
 240:Core/Src/adc.c **** 
 607              		.loc 1 240 5 view .LVU201
 242:Core/Src/adc.c ****     __HAL_RCC_GPIOA_CLK_ENABLE();
 608              		.loc 1 242 5 view .LVU202
 609              	.LBB3:
 242:Core/Src/adc.c ****     __HAL_RCC_GPIOA_CLK_ENABLE();
 610              		.loc 1 242 5 view .LVU203
 611 003e 0195     		str	r5, [sp, #4]
 242:Core/Src/adc.c ****     __HAL_RCC_GPIOA_CLK_ENABLE();
 612              		.loc 1 242 5 view .LVU204
 613 0040 1A6B     		ldr	r2, [r3, #48]
 614 0042 42F00402 		orr	r2, r2, #4
 615 0046 1A63     		str	r2, [r3, #48]
 242:Core/Src/adc.c ****     __HAL_RCC_GPIOA_CLK_ENABLE();
 616              		.loc 1 242 5 view .LVU205
 617 0048 1A6B     		ldr	r2, [r3, #48]
 618 004a 02F00402 		and	r2, r2, #4
 619 004e 0192     		str	r2, [sp, #4]
 242:Core/Src/adc.c ****     __HAL_RCC_GPIOA_CLK_ENABLE();
 620              		.loc 1 242 5 view .LVU206
 621 0050 019A     		ldr	r2, [sp, #4]
 622              	.LBE3:
 242:Core/Src/adc.c ****     __HAL_RCC_GPIOA_CLK_ENABLE();
 623              		.loc 1 242 5 view .LVU207
 243:Core/Src/adc.c ****     /**ADC1 GPIO Configuration
 624              		.loc 1 243 5 view .LVU208
 625              	.LBB4:
 243:Core/Src/adc.c ****     /**ADC1 GPIO Configuration
 626              		.loc 1 243 5 view .LVU209
 627 0052 0295     		str	r5, [sp, #8]
 243:Core/Src/adc.c ****     /**ADC1 GPIO Configuration
 628              		.loc 1 243 5 view .LVU210
 629 0054 1A6B     		ldr	r2, [r3, #48]
 630 0056 42F00102 		orr	r2, r2, #1
 631 005a 1A63     		str	r2, [r3, #48]
 243:Core/Src/adc.c ****     /**ADC1 GPIO Configuration
 632              		.loc 1 243 5 view .LVU211
 633 005c 1B6B     		ldr	r3, [r3, #48]
 634 005e 03F00103 		and	r3, r3, #1
 635 0062 0293     		str	r3, [sp, #8]
 243:Core/Src/adc.c ****     /**ADC1 GPIO Configuration
 636              		.loc 1 243 5 view .LVU212
 637 0064 029B     		ldr	r3, [sp, #8]
 638              	.LBE4:
 243:Core/Src/adc.c ****     /**ADC1 GPIO Configuration
 639              		.loc 1 243 5 view .LVU213
 259:Core/Src/adc.c ****                           |VBAT_SENSE_PIN_Pin;
 640              		.loc 1 259 5 view .LVU214
 259:Core/Src/adc.c ****                           |VBAT_SENSE_PIN_Pin;
ARM GAS  C:\Users\alireza\AppData\Local\Temp\ccGw81F6.s 			page 18


 641              		.loc 1 259 25 is_stmt 0 view .LVU215
 642 0066 1F23     		movs	r3, #31
 643 0068 0393     		str	r3, [sp, #12]
 261:Core/Src/adc.c ****     GPIO_InitStruct.Pull = GPIO_NOPULL;
 644              		.loc 1 261 5 is_stmt 1 view .LVU216
 261:Core/Src/adc.c ****     GPIO_InitStruct.Pull = GPIO_NOPULL;
 645              		.loc 1 261 26 is_stmt 0 view .LVU217
 646 006a 0327     		movs	r7, #3
 647 006c 0497     		str	r7, [sp, #16]
 262:Core/Src/adc.c ****     HAL_GPIO_Init(GPIOC, &GPIO_InitStruct);
 648              		.loc 1 262 5 is_stmt 1 view .LVU218
 263:Core/Src/adc.c **** 
 649              		.loc 1 263 5 view .LVU219
 650 006e 03AE     		add	r6, sp, #12
 651 0070 3146     		mov	r1, r6
 652 0072 1448     		ldr	r0, .L47
 653              	.LVL40:
 263:Core/Src/adc.c **** 
 654              		.loc 1 263 5 is_stmt 0 view .LVU220
 655 0074 FFF7FEFF 		bl	HAL_GPIO_Init
 656              	.LVL41:
 265:Core/Src/adc.c ****                           |SENSOR_MAP_PIN_Pin|SENSOR_IAT_PIN_Pin|SENSOR_CLT_PIN_Pin|SENSOR_OIL_PIN_
 657              		.loc 1 265 5 is_stmt 1 view .LVU221
 265:Core/Src/adc.c ****                           |SENSOR_MAP_PIN_Pin|SENSOR_IAT_PIN_Pin|SENSOR_CLT_PIN_Pin|SENSOR_OIL_PIN_
 658              		.loc 1 265 25 is_stmt 0 view .LVU222
 659 0078 FF23     		movs	r3, #255
 660 007a 0393     		str	r3, [sp, #12]
 267:Core/Src/adc.c ****     GPIO_InitStruct.Pull = GPIO_NOPULL;
 661              		.loc 1 267 5 is_stmt 1 view .LVU223
 267:Core/Src/adc.c ****     GPIO_InitStruct.Pull = GPIO_NOPULL;
 662              		.loc 1 267 26 is_stmt 0 view .LVU224
 663 007c 0497     		str	r7, [sp, #16]
 268:Core/Src/adc.c ****     HAL_GPIO_Init(GPIOA, &GPIO_InitStruct);
 664              		.loc 1 268 5 is_stmt 1 view .LVU225
 268:Core/Src/adc.c ****     HAL_GPIO_Init(GPIOA, &GPIO_InitStruct);
 665              		.loc 1 268 26 is_stmt 0 view .LVU226
 666 007e 0595     		str	r5, [sp, #20]
 269:Core/Src/adc.c **** 
 667              		.loc 1 269 5 is_stmt 1 view .LVU227
 668 0080 3146     		mov	r1, r6
 669 0082 1148     		ldr	r0, .L47+4
 670 0084 FFF7FEFF 		bl	HAL_GPIO_Init
 671              	.LVL42:
 273:Core/Src/adc.c ****     hdma_adc1.Init.Channel = DMA_CHANNEL_0;
 672              		.loc 1 273 5 view .LVU228
 273:Core/Src/adc.c ****     hdma_adc1.Init.Channel = DMA_CHANNEL_0;
 673              		.loc 1 273 24 is_stmt 0 view .LVU229
 674 0088 1048     		ldr	r0, .L47+8
 675 008a 114B     		ldr	r3, .L47+12
 676 008c 0360     		str	r3, [r0]
 274:Core/Src/adc.c ****     hdma_adc1.Init.Direction = DMA_PERIPH_TO_MEMORY;
 677              		.loc 1 274 5 is_stmt 1 view .LVU230
 274:Core/Src/adc.c ****     hdma_adc1.Init.Direction = DMA_PERIPH_TO_MEMORY;
 678              		.loc 1 274 28 is_stmt 0 view .LVU231
 679 008e 4560     		str	r5, [r0, #4]
 275:Core/Src/adc.c ****     hdma_adc1.Init.PeriphInc = DMA_PINC_DISABLE;
 680              		.loc 1 275 5 is_stmt 1 view .LVU232
ARM GAS  C:\Users\alireza\AppData\Local\Temp\ccGw81F6.s 			page 19


 275:Core/Src/adc.c ****     hdma_adc1.Init.PeriphInc = DMA_PINC_DISABLE;
 681              		.loc 1 275 30 is_stmt 0 view .LVU233
 682 0090 8560     		str	r5, [r0, #8]
 276:Core/Src/adc.c ****     hdma_adc1.Init.MemInc = DMA_MINC_ENABLE;
 683              		.loc 1 276 5 is_stmt 1 view .LVU234
 276:Core/Src/adc.c ****     hdma_adc1.Init.MemInc = DMA_MINC_ENABLE;
 684              		.loc 1 276 30 is_stmt 0 view .LVU235
 685 0092 C560     		str	r5, [r0, #12]
 277:Core/Src/adc.c ****     hdma_adc1.Init.PeriphDataAlignment = DMA_PDATAALIGN_HALFWORD;
 686              		.loc 1 277 5 is_stmt 1 view .LVU236
 277:Core/Src/adc.c ****     hdma_adc1.Init.PeriphDataAlignment = DMA_PDATAALIGN_HALFWORD;
 687              		.loc 1 277 27 is_stmt 0 view .LVU237
 688 0094 4FF48063 		mov	r3, #1024
 689 0098 0361     		str	r3, [r0, #16]
 278:Core/Src/adc.c ****     hdma_adc1.Init.MemDataAlignment = DMA_MDATAALIGN_HALFWORD;
 690              		.loc 1 278 5 is_stmt 1 view .LVU238
 278:Core/Src/adc.c ****     hdma_adc1.Init.MemDataAlignment = DMA_MDATAALIGN_HALFWORD;
 691              		.loc 1 278 40 is_stmt 0 view .LVU239
 692 009a 4FF40063 		mov	r3, #2048
 693 009e 4361     		str	r3, [r0, #20]
 279:Core/Src/adc.c ****     hdma_adc1.Init.Mode = DMA_NORMAL;
 694              		.loc 1 279 5 is_stmt 1 view .LVU240
 279:Core/Src/adc.c ****     hdma_adc1.Init.Mode = DMA_NORMAL;
 695              		.loc 1 279 37 is_stmt 0 view .LVU241
 696 00a0 4FF40053 		mov	r3, #8192
 697 00a4 8361     		str	r3, [r0, #24]
 280:Core/Src/adc.c ****     hdma_adc1.Init.Priority = DMA_PRIORITY_HIGH;
 698              		.loc 1 280 5 is_stmt 1 view .LVU242
 280:Core/Src/adc.c ****     hdma_adc1.Init.Priority = DMA_PRIORITY_HIGH;
 699              		.loc 1 280 25 is_stmt 0 view .LVU243
 700 00a6 C561     		str	r5, [r0, #28]
 281:Core/Src/adc.c ****     hdma_adc1.Init.FIFOMode = DMA_FIFOMODE_DISABLE;
 701              		.loc 1 281 5 is_stmt 1 view .LVU244
 281:Core/Src/adc.c ****     hdma_adc1.Init.FIFOMode = DMA_FIFOMODE_DISABLE;
 702              		.loc 1 281 29 is_stmt 0 view .LVU245
 703 00a8 4FF40033 		mov	r3, #131072
 704 00ac 0362     		str	r3, [r0, #32]
 282:Core/Src/adc.c ****     if (HAL_DMA_Init(&hdma_adc1) != HAL_OK)
 705              		.loc 1 282 5 is_stmt 1 view .LVU246
 282:Core/Src/adc.c ****     if (HAL_DMA_Init(&hdma_adc1) != HAL_OK)
 706              		.loc 1 282 29 is_stmt 0 view .LVU247
 707 00ae 4562     		str	r5, [r0, #36]
 283:Core/Src/adc.c ****     {
 708              		.loc 1 283 5 is_stmt 1 view .LVU248
 283:Core/Src/adc.c ****     {
 709              		.loc 1 283 9 is_stmt 0 view .LVU249
 710 00b0 FFF7FEFF 		bl	HAL_DMA_Init
 711              	.LVL43:
 283:Core/Src/adc.c ****     {
 712              		.loc 1 283 8 discriminator 1 view .LVU250
 713 00b4 18B9     		cbnz	r0, .L46
 714              	.L43:
 288:Core/Src/adc.c **** 
 715              		.loc 1 288 5 is_stmt 1 view .LVU251
 288:Core/Src/adc.c **** 
 716              		.loc 1 288 5 view .LVU252
 717 00b6 054B     		ldr	r3, .L47+8
ARM GAS  C:\Users\alireza\AppData\Local\Temp\ccGw81F6.s 			page 20


 718 00b8 A363     		str	r3, [r4, #56]
 288:Core/Src/adc.c **** 
 719              		.loc 1 288 5 view .LVU253
 720 00ba 9C63     		str	r4, [r3, #56]
 288:Core/Src/adc.c **** 
 721              		.loc 1 288 5 discriminator 1 view .LVU254
 722              		.loc 1 294 1 is_stmt 0 view .LVU255
 723 00bc AFE7     		b	.L41
 724              	.L46:
 285:Core/Src/adc.c ****     }
 725              		.loc 1 285 7 is_stmt 1 view .LVU256
 726 00be FFF7FEFF 		bl	Error_Handler
 727              	.LVL44:
 728 00c2 F8E7     		b	.L43
 729              	.L48:
 730              		.align	2
 731              	.L47:
 732 00c4 00080240 		.word	1073874944
 733 00c8 00000240 		.word	1073872896
 734 00cc 00000000 		.word	hdma_adc1
 735 00d0 10640240 		.word	1073898512
 736              		.cfi_endproc
 737              	.LFE221:
 739              		.section	.text.HAL_ADC_MspDeInit,"ax",%progbits
 740              		.align	1
 741              		.global	HAL_ADC_MspDeInit
 742              		.syntax unified
 743              		.thumb
 744              		.thumb_func
 746              	HAL_ADC_MspDeInit:
 747              	.LVL45:
 748              	.LFB222:
 295:Core/Src/adc.c **** 
 296:Core/Src/adc.c **** void HAL_ADC_MspDeInit(ADC_HandleTypeDef* adcHandle)
 297:Core/Src/adc.c **** {
 749              		.loc 1 297 1 view -0
 750              		.cfi_startproc
 751              		@ args = 0, pretend = 0, frame = 0
 752              		@ frame_needed = 0, uses_anonymous_args = 0
 298:Core/Src/adc.c **** 
 299:Core/Src/adc.c ****   if(adcHandle->Instance==ADC1)
 753              		.loc 1 299 3 view .LVU258
 754              		.loc 1 299 15 is_stmt 0 view .LVU259
 755 0000 0268     		ldr	r2, [r0]
 756              		.loc 1 299 5 view .LVU260
 757 0002 0B4B     		ldr	r3, .L56
 758 0004 9A42     		cmp	r2, r3
 759 0006 00D0     		beq	.L55
 760 0008 7047     		bx	lr
 761              	.L55:
 297:Core/Src/adc.c **** 
 762              		.loc 1 297 1 view .LVU261
 763 000a 10B5     		push	{r4, lr}
 764              		.cfi_def_cfa_offset 8
 765              		.cfi_offset 4, -8
 766              		.cfi_offset 14, -4
 767 000c 0446     		mov	r4, r0
ARM GAS  C:\Users\alireza\AppData\Local\Temp\ccGw81F6.s 			page 21


 300:Core/Src/adc.c ****   {
 301:Core/Src/adc.c ****   /* USER CODE BEGIN ADC1_MspDeInit 0 */
 302:Core/Src/adc.c **** 
 303:Core/Src/adc.c ****   /* USER CODE END ADC1_MspDeInit 0 */
 304:Core/Src/adc.c ****     /* Peripheral clock disable */
 305:Core/Src/adc.c ****     __HAL_RCC_ADC1_CLK_DISABLE();
 768              		.loc 1 305 5 is_stmt 1 view .LVU262
 769 000e 094A     		ldr	r2, .L56+4
 770 0010 536C     		ldr	r3, [r2, #68]
 771 0012 23F48073 		bic	r3, r3, #256
 772 0016 5364     		str	r3, [r2, #68]
 306:Core/Src/adc.c **** 
 307:Core/Src/adc.c ****     /**ADC1 GPIO Configuration
 308:Core/Src/adc.c ****     PC0     ------> ADC1_IN10
 309:Core/Src/adc.c ****     PC1     ------> ADC1_IN11
 310:Core/Src/adc.c ****     PC2     ------> ADC1_IN12
 311:Core/Src/adc.c ****     PC3     ------> ADC1_IN13
 312:Core/Src/adc.c ****     PA0-WKUP     ------> ADC1_IN0
 313:Core/Src/adc.c ****     PA1     ------> ADC1_IN1
 314:Core/Src/adc.c ****     PA2     ------> ADC1_IN2
 315:Core/Src/adc.c ****     PA3     ------> ADC1_IN3
 316:Core/Src/adc.c ****     PA4     ------> ADC1_IN4
 317:Core/Src/adc.c ****     PA5     ------> ADC1_IN5
 318:Core/Src/adc.c ****     PA6     ------> ADC1_IN6
 319:Core/Src/adc.c ****     PA7     ------> ADC1_IN7
 320:Core/Src/adc.c ****     PC4     ------> ADC1_IN14
 321:Core/Src/adc.c ****     */
 322:Core/Src/adc.c ****     HAL_GPIO_DeInit(GPIOC, AD_INPUT1_PIN_Pin|AD_INPUT2_PIN_Pin|AD_INPUT3_PIN_Pin|AD_INPUT4_PIN_Pin
 773              		.loc 1 322 5 view .LVU263
 774 0018 1F21     		movs	r1, #31
 775 001a 0748     		ldr	r0, .L56+8
 776              	.LVL46:
 777              		.loc 1 322 5 is_stmt 0 view .LVU264
 778 001c FFF7FEFF 		bl	HAL_GPIO_DeInit
 779              	.LVL47:
 323:Core/Src/adc.c ****                           |VBAT_SENSE_PIN_Pin);
 324:Core/Src/adc.c **** 
 325:Core/Src/adc.c ****     HAL_GPIO_DeInit(GPIOA, ETB1_SENSE1_Pin|ETB1_SENSE2_Pin|ETB2_SENSE1_Pin|ETB2_SENSE2_Pin
 780              		.loc 1 325 5 is_stmt 1 view .LVU265
 781 0020 FF21     		movs	r1, #255
 782 0022 0648     		ldr	r0, .L56+12
 783 0024 FFF7FEFF 		bl	HAL_GPIO_DeInit
 784              	.LVL48:
 326:Core/Src/adc.c ****                           |SENSOR_MAP_PIN_Pin|SENSOR_IAT_PIN_Pin|SENSOR_CLT_PIN_Pin|SENSOR_OIL_PIN_
 327:Core/Src/adc.c **** 
 328:Core/Src/adc.c ****     /* ADC1 DMA DeInit */
 329:Core/Src/adc.c ****     HAL_DMA_DeInit(adcHandle->DMA_Handle);
 785              		.loc 1 329 5 view .LVU266
 786 0028 A06B     		ldr	r0, [r4, #56]
 787 002a FFF7FEFF 		bl	HAL_DMA_DeInit
 788              	.LVL49:
 330:Core/Src/adc.c ****   /* USER CODE BEGIN ADC1_MspDeInit 1 */
 331:Core/Src/adc.c **** 
 332:Core/Src/adc.c ****   /* USER CODE END ADC1_MspDeInit 1 */
 333:Core/Src/adc.c ****   }
 334:Core/Src/adc.c **** }
 789              		.loc 1 334 1 is_stmt 0 view .LVU267
ARM GAS  C:\Users\alireza\AppData\Local\Temp\ccGw81F6.s 			page 22


 790 002e 10BD     		pop	{r4, pc}
 791              	.LVL50:
 792              	.L57:
 793              		.loc 1 334 1 view .LVU268
 794              		.align	2
 795              	.L56:
 796 0030 00200140 		.word	1073815552
 797 0034 00380240 		.word	1073887232
 798 0038 00080240 		.word	1073874944
 799 003c 00000240 		.word	1073872896
 800              		.cfi_endproc
 801              	.LFE222:
 803              		.global	hdma_adc1
 804              		.section	.bss.hdma_adc1,"aw",%nobits
 805              		.align	2
 808              	hdma_adc1:
 809 0000 00000000 		.space	96
 809      00000000 
 809      00000000 
 809      00000000 
 809      00000000 
 810              		.global	hadc1
 811              		.section	.bss.hadc1,"aw",%nobits
 812              		.align	2
 815              	hadc1:
 816 0000 00000000 		.space	72
 816      00000000 
 816      00000000 
 816      00000000 
 816      00000000 
 817              		.text
 818              	.Letext0:
 819              		.file 2 "C:/Users/alireza/AppData/Roaming/Code/User/globalStorage/bmd.stm32-for-vscode/@xpack-dev-
 820              		.file 3 "C:/Users/alireza/AppData/Roaming/Code/User/globalStorage/bmd.stm32-for-vscode/@xpack-dev-
 821              		.file 4 "Drivers/CMSIS/Device/ST/STM32F4xx/Include/stm32f401xc.h"
 822              		.file 5 "Drivers/CMSIS/Device/ST/STM32F4xx/Include/stm32f4xx.h"
 823              		.file 6 "Drivers/STM32F4xx_HAL_Driver/Inc/stm32f4xx_hal_def.h"
 824              		.file 7 "Drivers/STM32F4xx_HAL_Driver/Inc/stm32f4xx_hal_gpio.h"
 825              		.file 8 "Drivers/STM32F4xx_HAL_Driver/Inc/stm32f4xx_hal_dma.h"
 826              		.file 9 "Drivers/STM32F4xx_HAL_Driver/Inc/stm32f4xx_hal_adc.h"
 827              		.file 10 "Drivers/STM32F4xx_HAL_Driver/Inc/stm32f4xx_hal_adc_ex.h"
 828              		.file 11 "Core/Inc/adc.h"
 829              		.file 12 "Core/Inc/main.h"
 830              		.file 13 "<built-in>"
ARM GAS  C:\Users\alireza\AppData\Local\Temp\ccGw81F6.s 			page 23

