ARM GAS  C:\Users\alireza\AppData\Local\Temp\ccbroboM.s 			page 1


   1              		.cpu cortex-m4
   2              		.arch armv7e-m
   3              		.fpu fpv4-sp-d16
   4              		.eabi_attribute 27, 1
   5              		.eabi_attribute 28, 1
   6              		.eabi_attribute 20, 1
   7              		.eabi_attribute 21, 1
   8              		.eabi_attribute 23, 3
   9              		.eabi_attribute 24, 1
  10              		.eabi_attribute 25, 1
  11              		.eabi_attribute 26, 1
  12              		.eabi_attribute 30, 1
  13              		.eabi_attribute 34, 1
  14              		.eabi_attribute 18, 4
  15              		.file	"airmass.c"
  16              		.text
  17              	.Ltext0:
  18              		.cfi_sections	.debug_frame
  19              		.file 1 "controller/algorithm/air_mass/airmass.c"
  20              		.section	.text.ideal_gas_law,"ax",%progbits
  21              		.align	1
  22              		.global	ideal_gas_law
  23              		.syntax unified
  24              		.thumb
  25              		.thumb_func
  27              	ideal_gas_law:
  28              	.LVL0:
  29              	.LFB228:
   1:controller/algorithm/air_mass/airmass.c **** #include "airmass.h"
   2:controller/algorithm/air_mass/airmass.c **** #include "utils.h"
   3:controller/algorithm/air_mass/airmass.c **** 
   4:controller/algorithm/air_mass/airmass.c **** mass_t ideal_gas_law(float volume, pressure_t pressure, temperature_t temperature)
   5:controller/algorithm/air_mass/airmass.c **** {
  30              		.loc 1 5 1 view -0
  31              		.cfi_startproc
  32              		@ args = 0, pretend = 0, frame = 0
  33              		@ frame_needed = 0, uses_anonymous_args = 0
  34              		@ link register save eliminated.
   6:controller/algorithm/air_mass/airmass.c **** 	return volume * pressure / (AIR_R * temperature);
  35              		.loc 1 6 2 view .LVU1
  36              		.loc 1 6 16 is_stmt 0 view .LVU2
  37 0000 20EE200A 		vmul.f32	s0, s0, s1
  38              	.LVL1:
  39              		.loc 1 6 36 view .LVU3
  40 0004 DFED037A 		vldr.32	s15, .L2
  41 0008 21EE271A 		vmul.f32	s2, s2, s15
  42              	.LVL2:
   7:controller/algorithm/air_mass/airmass.c **** }
  43              		.loc 1 7 1 view .LVU4
  44 000c 80EE010A 		vdiv.f32	s0, s0, s2
  45 0010 7047     		bx	lr
  46              	.L3:
  47 0012 00BF     		.align	2
  48              	.L2:
  49 0014 38F8923E 		.word	1049819192
  50              		.cfi_endproc
  51              	.LFE228:
ARM GAS  C:\Users\alireza\AppData\Local\Temp\ccbroboM.s 			page 2


  53              		.section	.text.air_mass_get,"ax",%progbits
  54              		.align	1
  55              		.global	air_mass_get
  56              		.syntax unified
  57              		.thumb
  58              		.thumb_func
  60              	air_mass_get:
  61              	.LVL3:
  62              	.LFB229:
   8:controller/algorithm/air_mass/airmass.c **** 
   9:controller/algorithm/air_mass/airmass.c **** mass_t air_mass_get(rpm_t rpm, percent_t ve, pressure_t map, temperature_t iat)
  10:controller/algorithm/air_mass/airmass.c **** {
  63              		.loc 1 10 1 is_stmt 1 view -0
  64              		.cfi_startproc
  65              		@ args = 0, pretend = 0, frame = 0
  66              		@ frame_needed = 0, uses_anonymous_args = 0
  67              		.loc 1 10 1 is_stmt 0 view .LVU6
  68 0000 08B5     		push	{r3, lr}
  69              		.cfi_def_cfa_offset 8
  70              		.cfi_offset 3, -8
  71              		.cfi_offset 14, -4
  72 0002 2DED028B 		vpush.64	{d8}
  73              		.cfi_def_cfa_offset 16
  74              		.cfi_offset 80, -16
  75              		.cfi_offset 81, -12
  76 0006 B0EE608A 		vmov.f32	s16, s1
  77 000a F0EE410A 		vmov.f32	s1, s2
  78              	.LVL4:
  11:controller/algorithm/air_mass/airmass.c ****     mass_t air_mass = 0;
  79              		.loc 1 11 5 is_stmt 1 view .LVU7
  12:controller/algorithm/air_mass/airmass.c ****     // check if this is mathematically correct
  13:controller/algorithm/air_mass/airmass.c ****     air_mass = ve * ideal_gas_law(configuration.engine_displacment, map, CELSIUS_TO_KELVIN(iat));
  80              		.loc 1 13 5 view .LVU8
  81              		.loc 1 13 21 is_stmt 0 view .LVU9
  82 000e 9FED071A 		vldr.32	s2, .L6
  83              	.LVL5:
  84              		.loc 1 13 21 view .LVU10
  85 0012 31EE811A 		vadd.f32	s2, s3, s2
  86 0016 064B     		ldr	r3, .L6+4
  87 0018 93ED000A 		vldr.32	s0, [r3]
  88              	.LVL6:
  89              		.loc 1 13 21 view .LVU11
  90 001c FFF7FEFF 		bl	ideal_gas_law
  91              	.LVL7:
  14:controller/algorithm/air_mass/airmass.c ****     return air_mass;
  92              		.loc 1 14 5 is_stmt 1 view .LVU12
  15:controller/algorithm/air_mass/airmass.c **** }
  93              		.loc 1 15 1 is_stmt 0 view .LVU13
  94 0020 20EE080A 		vmul.f32	s0, s0, s16
  95              	.LVL8:
  96              		.loc 1 15 1 view .LVU14
  97 0024 BDEC028B 		vldm	sp!, {d8}
  98              		.cfi_restore 80
  99              		.cfi_restore 81
 100              		.cfi_def_cfa_offset 8
 101              	.LVL9:
 102              		.loc 1 15 1 view .LVU15
ARM GAS  C:\Users\alireza\AppData\Local\Temp\ccbroboM.s 			page 3


 103 0028 08BD     		pop	{r3, pc}
 104              	.L7:
 105 002a 00BF     		.align	2
 106              	.L6:
 107 002c 33938843 		.word	1133024051
 108 0030 00000000 		.word	configuration
 109              		.cfi_endproc
 110              	.LFE229:
 112              		.text
 113              	.Letext0:
 114              		.file 2 "controller/enums.h"
 115              		.file 3 "C:/Users/alireza/AppData/Roaming/Code/User/globalStorage/bmd.stm32-for-vscode/@xpack-dev-
 116              		.file 4 "C:/Users/alireza/AppData/Roaming/Code/User/globalStorage/bmd.stm32-for-vscode/@xpack-dev-
 117              		.file 5 "controller/types.h"
 118              		.file 6 "controller/engine_cycle/trigger.h"
 119              		.file 7 "controller/IO/analog_inputs.h"
 120              		.file 8 "controller/IO/sensors/tps.h"
 121              		.file 9 "controller/IO/thermistor.h"
 122              		.file 10 "controller/utils/pid.h"
 123              		.file 11 "controller/controller.h"
ARM GAS  C:\Users\alireza\AppData\Local\Temp\ccbroboM.s 			page 4

