ARM GAS  C:\Users\alireza\AppData\Local\Temp\ccnMGIkA.s 			page 1


   1              		.cpu cortex-m4
   2              		.arch armv7e-m
   3              		.fpu fpv4-sp-d16
   4              		.eabi_attribute 27, 1
   5              		.eabi_attribute 28, 1
   6              		.eabi_attribute 20, 1
   7              		.eabi_attribute 21, 1
   8              		.eabi_attribute 23, 3
   9              		.eabi_attribute 24, 1
  10              		.eabi_attribute 25, 1
  11              		.eabi_attribute 26, 1
  12              		.eabi_attribute 30, 1
  13              		.eabi_attribute 34, 1
  14              		.eabi_attribute 18, 4
  15              		.file	"clt.c"
  16              		.text
  17              	.Ltext0:
  18              		.cfi_sections	.debug_frame
  19              		.file 1 "controller/IO/sensors/clt.c"
  20              		.section	.text.sensor_clt_init,"ax",%progbits
  21              		.align	1
  22              		.global	sensor_clt_init
  23              		.syntax unified
  24              		.thumb
  25              		.thumb_func
  27              	sensor_clt_init:
  28              	.LFB228:
   1:controller/IO/sensors/clt.c **** #include "clt.h"
   2:controller/IO/sensors/clt.c **** 
   3:controller/IO/sensors/clt.c **** resistor_s sensor_clt_resistor;
   4:controller/IO/sensors/clt.c **** thermistor_s sensor_clt;
   5:controller/IO/sensors/clt.c **** 
   6:controller/IO/sensors/clt.c **** void sensor_clt_init()
   7:controller/IO/sensors/clt.c **** {
  29              		.loc 1 7 1 view -0
  30              		.cfi_startproc
  31              		@ args = 0, pretend = 0, frame = 0
  32              		@ frame_needed = 0, uses_anonymous_args = 0
  33 0000 00B5     		push	{lr}
  34              		.cfi_def_cfa_offset 4
  35              		.cfi_offset 14, -4
  36 0002 85B0     		sub	sp, sp, #20
  37              		.cfi_def_cfa_offset 24
   8:controller/IO/sensors/clt.c ****     resistor_init(&sensor_clt_resistor, 10000, RESISTOR_PULL_UP, ANALOG_INPUT_SENSOR_CLT_PIN);
  38              		.loc 1 8 5 view .LVU1
  39 0004 0622     		movs	r2, #6
  40 0006 0021     		movs	r1, #0
  41 0008 9FED090A 		vldr.32	s0, .L3
  42 000c 0948     		ldr	r0, .L3+4
  43 000e FFF7FEFF 		bl	resistor_init
  44              	.LVL0:
   9:controller/IO/sensors/clt.c ****     thermistor_init(&sensor_clt, configuration.clt_thermistor_calib);
  45              		.loc 1 9 5 view .LVU2
  46 0012 094B     		ldr	r3, .L3+8
  47 0014 03F14C02 		add	r2, r3, #76
  48 0018 07CA     		ldm	r2, {r0, r1, r2}
  49 001a 8DE80700 		stm	sp, {r0, r1, r2}
ARM GAS  C:\Users\alireza\AppData\Local\Temp\ccnMGIkA.s 			page 2


  50 001e 4033     		adds	r3, r3, #64
  51 0020 0ECB     		ldm	r3, {r1, r2, r3}
  52 0022 0648     		ldr	r0, .L3+12
  53 0024 FFF7FEFF 		bl	thermistor_init
  54              	.LVL1:
  10:controller/IO/sensors/clt.c **** }
  55              		.loc 1 10 1 is_stmt 0 view .LVU3
  56 0028 05B0     		add	sp, sp, #20
  57              		.cfi_def_cfa_offset 4
  58              		@ sp needed
  59 002a 5DF804FB 		ldr	pc, [sp], #4
  60              	.L4:
  61 002e 00BF     		.align	2
  62              	.L3:
  63 0030 00401C46 		.word	1176256512
  64 0034 00000000 		.word	sensor_clt_resistor
  65 0038 00000000 		.word	configuration
  66 003c 00000000 		.word	sensor_clt
  67              		.cfi_endproc
  68              	.LFE228:
  70              		.section	.text.sensor_clt_get,"ax",%progbits
  71              		.align	1
  72              		.global	sensor_clt_get
  73              		.syntax unified
  74              		.thumb
  75              		.thumb_func
  77              	sensor_clt_get:
  78              	.LFB229:
  11:controller/IO/sensors/clt.c **** 
  12:controller/IO/sensors/clt.c **** temperature_t sensor_clt_get()
  13:controller/IO/sensors/clt.c **** {
  79              		.loc 1 13 1 is_stmt 1 view -0
  80              		.cfi_startproc
  81              		@ args = 0, pretend = 0, frame = 0
  82              		@ frame_needed = 0, uses_anonymous_args = 0
  83 0000 08B5     		push	{r3, lr}
  84              		.cfi_def_cfa_offset 8
  85              		.cfi_offset 3, -8
  86              		.cfi_offset 14, -4
  14:controller/IO/sensors/clt.c ****     temperature_t clt_temp = 0;
  87              		.loc 1 14 5 view .LVU5
  88              	.LVL2:
  15:controller/IO/sensors/clt.c ****     clt_temp = thermistor_get_temp(&sensor_clt);
  89              		.loc 1 15 5 view .LVU6
  90              		.loc 1 15 16 is_stmt 0 view .LVU7
  91 0002 0248     		ldr	r0, .L7
  92 0004 FFF7FEFF 		bl	thermistor_get_temp
  93              	.LVL3:
  16:controller/IO/sensors/clt.c ****     if (clt_temp == NAN)
  94              		.loc 1 16 5 is_stmt 1 view .LVU8
  17:controller/IO/sensors/clt.c ****     {
  18:controller/IO/sensors/clt.c ****         clt_temp = SENSOR_CLT_FAIL_SAFE;
  19:controller/IO/sensors/clt.c ****     }
  20:controller/IO/sensors/clt.c ****     return clt_temp;
  95              		.loc 1 20 5 view .LVU9
  21:controller/IO/sensors/clt.c **** }
  96              		.loc 1 21 1 is_stmt 0 view .LVU10
ARM GAS  C:\Users\alireza\AppData\Local\Temp\ccnMGIkA.s 			page 3


  97 0008 08BD     		pop	{r3, pc}
  98              	.L8:
  99 000a 00BF     		.align	2
 100              	.L7:
 101 000c 00000000 		.word	sensor_clt
 102              		.cfi_endproc
 103              	.LFE229:
 105              		.global	sensor_clt
 106              		.section	.bss.sensor_clt,"aw",%nobits
 107              		.align	2
 110              	sensor_clt:
 111 0000 00000000 		.space	16
 111      00000000 
 111      00000000 
 111      00000000 
 112              		.global	sensor_clt_resistor
 113              		.section	.bss.sensor_clt_resistor,"aw",%nobits
 114              		.align	2
 117              	sensor_clt_resistor:
 118 0000 00000000 		.space	12
 118      00000000 
 118      00000000 
 119              		.text
 120              	.Letext0:
 121              		.file 2 "C:/Users/alireza/AppData/Roaming/Code/User/globalStorage/bmd.stm32-for-vscode/@xpack-dev-
 122              		.file 3 "C:/Users/alireza/AppData/Roaming/Code/User/globalStorage/bmd.stm32-for-vscode/@xpack-dev-
 123              		.file 4 "controller/types.h"
 124              		.file 5 "controller/IO/analog_inputs.h"
 125              		.file 6 "controller/IO/resistor.h"
 126              		.file 7 "controller/IO/thermistor.h"
 127              		.file 8 "controller/enums.h"
 128              		.file 9 "controller/engine_cycle/trigger.h"
 129              		.file 10 "controller/IO/sensors/tps.h"
 130              		.file 11 "controller/utils/pid.h"
 131              		.file 12 "controller/utils/comms.h"
 132              		.file 13 "controller/controller.h"
ARM GAS  C:\Users\alireza\AppData\Local\Temp\ccnMGIkA.s 			page 4

