ARM GAS  C:\Users\alireza\AppData\Local\Temp\ccjouU0f.s 			page 1


   1              		.cpu cortex-m4
   2              		.arch armv7e-m
   3              		.fpu fpv4-sp-d16
   4              		.eabi_attribute 27, 1
   5              		.eabi_attribute 28, 1
   6              		.eabi_attribute 20, 1
   7              		.eabi_attribute 21, 1
   8              		.eabi_attribute 23, 3
   9              		.eabi_attribute 24, 1
  10              		.eabi_attribute 25, 1
  11              		.eabi_attribute 26, 1
  12              		.eabi_attribute 30, 1
  13              		.eabi_attribute 34, 1
  14              		.eabi_attribute 18, 4
  15              		.file	"comms.c"
  16              		.text
  17              	.Ltext0:
  18              		.cfi_sections	.debug_frame
  19              		.file 1 "controller/utils/comms.c"
  20              		.section	.text.transmit_crc_packet,"ax",%progbits
  21              		.align	1
  22              		.global	transmit_crc_packet
  23              		.syntax unified
  24              		.thumb
  25              		.thumb_func
  27              	transmit_crc_packet:
  28              	.LVL0:
  29              	.LFB233:
   1:controller/utils/comms.c **** #if COMMS_ENABLED == true
   2:controller/utils/comms.c **** 
   3:controller/utils/comms.c **** #include "comms.h"
   4:controller/utils/comms.c **** #include <string.h>
   5:controller/utils/comms.c **** #include "utils.h"
   6:controller/utils/comms.c **** #include "crc.h"
   7:controller/utils/comms.c **** #include "timing.h"
   8:controller/utils/comms.c **** #include "controller.h"
   9:controller/utils/comms.c **** /*******************************************************************************
  10:controller/utils/comms.c ****  *                          TUNERSTUDIO PROTOCOL PACKET FORMAT
  11:controller/utils/comms.c ****  * 
  12:controller/utils/comms.c ****  * ┌───────────────────────────────
  13:controller/utils/comms.c ****  * │                            HOST → ECU REQUEST                            │
  14:controller/utils/comms.c ****  * ├──────────┬────────────────────
  15:controller/utils/comms.c ****  * │   SIZE   │              PAYLOAD (CMD + DATA)              │    CRC32     │
  16:controller/utils/comms.c ****  * └──────────┴────────────────────
  17:controller/utils/comms.c ****  * 
  18:controller/utils/comms.c ****  *    2 bytes                      N bytes                         4 bytes
  19:controller/utils/comms.c ****  * 
  20:controller/utils/comms.c ****  * 
  21:controller/utils/comms.c ****  * ┌───────────────────────────────
  22:controller/utils/comms.c ****  * │                            ECU → HOST RESPONSE                            │
  23:controller/utils/comms.c ****  * ├──────────┬──────────┬─────────
  24:controller/utils/comms.c ****  * │   SIZE   │   FLAG   │           PAYLOAD (DATA)             │    CRC32     │
  25:controller/utils/comms.c ****  * └──────────┴──────────┴─────────
  26:controller/utils/comms.c ****  * 
  27:controller/utils/comms.c ****  *    2 bytes    1 byte                 N bytes                    4 bytes
  28:controller/utils/comms.c ****  * 
  29:controller/utils/comms.c ****  * NOTES:
ARM GAS  C:\Users\alireza\AppData\Local\Temp\ccjouU0f.s 			page 2


  30:controller/utils/comms.c ****  * - SIZE: Big-endian uint16 (payload length EXCLUDING CRC)
  31:controller/utils/comms.c ****  * - FLAG: 0x00=OK, 0x7F=ERROR, 0x5A=DATA_PENDING
  32:controller/utils/comms.c ****  * - CRC32: Calculated over Size+Payload (EXCLUDING the CRC itself)
  33:controller/utils/comms.c ****  * - All multi-byte fields use BIG-ENDIAN byte order
  34:controller/utils/comms.c ****  * - Minimum packet size: 7 bytes (2+1+0+4 for empty response)
  35:controller/utils/comms.c ****  * For every packet sent to the Megasquirt, there will be a response packet, so the sender can vali
  36:controller/utils/comms.c **** reception. The sender MUST act on the response code and MUST check the CRC32.
  37:controller/utils/comms.c ****  ******************************************************************************/
  38:controller/utils/comms.c **** // ==================== Global Variables ====================
  39:controller/utils/comms.c **** osMessageQueueId_t usb_rx_queue;
  40:controller/utils/comms.c **** 
  41:controller/utils/comms.c **** usb_rx_packet_t rx_packet;
  42:controller/utils/comms.c **** /**
  43:controller/utils/comms.c ****  * See 'blockingFactor' in .ini
  44:controller/utils/comms.c ****  */
  45:controller/utils/comms.c **** uint8_t tx_buffer[TS_BLOCKING_FACTOR + 30];
  46:controller/utils/comms.c **** uint8_t rx_buffer[TS_BLOCKING_FACTOR + 30];
  47:controller/utils/comms.c **** 
  48:controller/utils/comms.c **** /* Function delcearations  */
  49:controller/utils/comms.c **** /**
  50:controller/utils/comms.c ****  * @note size can be zero to transmit an empty packet
  51:controller/utils/comms.c ****  */
  52:controller/utils/comms.c **** void send_response(uint8_t flag, uint8_t *data, size_t size, comms_response_format_t mode);
  53:controller/utils/comms.c **** void transmit_crc_packet(uint8_t flag, const uint8_t *buf, size_t size);
  54:controller/utils/comms.c **** bool process_plain_command(uint8_t *request, uint16_t size);
  55:controller/utils/comms.c **** void process_command(uint8_t *request, uint16_t size);
  56:controller/utils/comms.c **** void handle_page_read_command(uint16_t page, uint16_t offset, uint16_t count);
  57:controller/utils/comms.c **** void handle_page_write_command(uint16_t page, uint16_t offset, uint16_t count);
  58:controller/utils/comms.c **** 
  59:controller/utils/comms.c **** /* Function definations */
  60:controller/utils/comms.c **** 
  61:controller/utils/comms.c **** void send_response(uint8_t flag, uint8_t *data, size_t size, comms_response_format_t mode)
  62:controller/utils/comms.c **** {
  63:controller/utils/comms.c **** 
  64:controller/utils/comms.c ****     if (mode == TS_CRC)
  65:controller/utils/comms.c ****     {
  66:controller/utils/comms.c ****         transmit_crc_packet(flag, data, size);
  67:controller/utils/comms.c ****     }
  68:controller/utils/comms.c ****     else
  69:controller/utils/comms.c ****     {
  70:controller/utils/comms.c ****         if (size > 0)
  71:controller/utils/comms.c ****         {
  72:controller/utils/comms.c **** 			memcpy(tx_buffer, data, size);
  73:controller/utils/comms.c ****             CDC_Transmit_FS(tx_buffer, size);
  74:controller/utils/comms.c ****         }
  75:controller/utils/comms.c ****     }
  76:controller/utils/comms.c **** 	HAL_GPIO_WritePin(LED_GPIO_Port, LED_Pin, GPIO_PIN_SET);
  77:controller/utils/comms.c **** }
  78:controller/utils/comms.c **** 
  79:controller/utils/comms.c **** void transmit_crc_packet(uint8_t flag, const uint8_t *buf, size_t size)
  80:controller/utils/comms.c **** {
  30              		.loc 1 80 1 view -0
  31              		.cfi_startproc
  32              		@ args = 0, pretend = 0, frame = 8
  33              		@ frame_needed = 0, uses_anonymous_args = 0
  34              		.loc 1 80 1 is_stmt 0 view .LVU1
  35 0000 2DE9F043 		push	{r4, r5, r6, r7, r8, r9, lr}
ARM GAS  C:\Users\alireza\AppData\Local\Temp\ccjouU0f.s 			page 3


  36              		.cfi_def_cfa_offset 28
  37              		.cfi_offset 4, -28
  38              		.cfi_offset 5, -24
  39              		.cfi_offset 6, -20
  40              		.cfi_offset 7, -16
  41              		.cfi_offset 8, -12
  42              		.cfi_offset 9, -8
  43              		.cfi_offset 14, -4
  44 0004 83B0     		sub	sp, sp, #12
  45              		.cfi_def_cfa_offset 40
  46 0006 0F46     		mov	r7, r1
  47 0008 1546     		mov	r5, r2
  48 000a 8DF80700 		strb	r0, [sp, #7]
  81:controller/utils/comms.c **** 
  82:controller/utils/comms.c **** 	/* We first calculate the prefix */
  83:controller/utils/comms.c ****     uint16_t packet_size = 0;
  49              		.loc 1 83 5 is_stmt 1 view .LVU2
  50              	.LVL1:
  84:controller/utils/comms.c **** 	packet_size += 2; // prefix
  51              		.loc 1 84 2 view .LVU3
  85:controller/utils/comms.c **** 	packet_size += 1; // flag
  52              		.loc 1 85 2 view .LVU4
  86:controller/utils/comms.c **** 	packet_size += 4; // CRC
  53              		.loc 1 86 2 view .LVU5
  87:controller/utils/comms.c **** 	packet_size += size; // payload
  54              		.loc 1 87 2 view .LVU6
  55              		.loc 1 87 14 is_stmt 0 view .LVU7
  56 000e 96B2     		uxth	r6, r2
  57 0010 06F10708 		add	r8, r6, #7
  58 0014 1FFA88F8 		uxth	r8, r8
  59              	.LVL2:
  88:controller/utils/comms.c **** 
  89:controller/utils/comms.c **** 	/* Converte the size to big endian */
  90:controller/utils/comms.c **** 	uint16_t prefix = 0;
  60              		.loc 1 90 2 is_stmt 1 view .LVU8
  91:controller/utils/comms.c **** 	prefix = swap_endian_uint16(sizeof(flag) + size);
  61              		.loc 1 91 2 view .LVU9
  62              		.loc 1 91 11 is_stmt 0 view .LVU10
  63 0018 0136     		adds	r6, r6, #1
  64              	.LVL3:
  65              	.LBB19:
  66              	.LBI19:
  67              		.file 2 "controller/utils/utils.h"
   1:controller/utils/utils.h **** /**
   2:controller/utils/utils.h ****  * @file utils.h
   3:controller/utils/utils.h ****  * @brief Header file containing utility functions and definitions for the smart generator controll
   4:controller/utils/utils.h ****  *
   5:controller/utils/utils.h ****  * This file provides declarations for utility functions and macros that are
   6:controller/utils/utils.h ****  * used throughout the firmware to support various functionalities.
   7:controller/utils/utils.h ****  *
   8:controller/utils/utils.h ****  * @note Ensure that this file is included wherever utility functions are required.
   9:controller/utils/utils.h ****  */
  10:controller/utils/utils.h **** #ifndef UTILS_H
  11:controller/utils/utils.h **** #define UTILS_H
  12:controller/utils/utils.h **** 
  13:controller/utils/utils.h **** #include "types.h"
  14:controller/utils/utils.h **** #include "math.h"
ARM GAS  C:\Users\alireza\AppData\Local\Temp\ccjouU0f.s 			page 4


  15:controller/utils/utils.h **** #define IS_IN_RANGE(value, min, max) ((value) >= (min) && (value) <= (max))
  16:controller/utils/utils.h **** #define ABS(value) ((value) < 0 ? -(value) : (value))
  17:controller/utils/utils.h **** #define CLAMP(value, min, max) ((value) < (min) ? (min) : ((value) > (max) ? (max) : (value)))
  18:controller/utils/utils.h **** 
  19:controller/utils/utils.h **** static inline void change_bit(uint32_t *var, uint8_t bit, bool state)
  20:controller/utils/utils.h **** {
  21:controller/utils/utils.h ****     if (bit > 31)
  22:controller/utils/utils.h ****     {
  23:controller/utils/utils.h ****         return;
  24:controller/utils/utils.h ****     }
  25:controller/utils/utils.h ****     if (state)
  26:controller/utils/utils.h ****     {
  27:controller/utils/utils.h ****         *var |= (1u << bit);
  28:controller/utils/utils.h ****     }
  29:controller/utils/utils.h ****     else
  30:controller/utils/utils.h ****     {
  31:controller/utils/utils.h ****         *var &= ~(1u << bit);
  32:controller/utils/utils.h ****     }
  33:controller/utils/utils.h **** }
  34:controller/utils/utils.h **** 
  35:controller/utils/utils.h **** static inline bool get_bit(uint32_t flags, uint8_t bit)
  36:controller/utils/utils.h **** {
  37:controller/utils/utils.h ****     if (bit < 32)
  38:controller/utils/utils.h ****     {
  39:controller/utils/utils.h ****         return (flags >> bit) & 1u;
  40:controller/utils/utils.h ****     }
  41:controller/utils/utils.h ****     return false;
  42:controller/utils/utils.h **** }
  43:controller/utils/utils.h **** 
  44:controller/utils/utils.h **** /**
  45:controller/utils/utils.h ****  * @brief Maps a value from one range to another.
  46:controller/utils/utils.h ****  *
  47:controller/utils/utils.h ****  * @param x The value to map.
  48:controller/utils/utils.h ****  * @param in_min The lower bound of the input range.
  49:controller/utils/utils.h ****  * @param in_max The upper bound of the input range.
  50:controller/utils/utils.h ****  * @param out_min The lower bound of the output range.
  51:controller/utils/utils.h ****  * @param out_max The upper bound of the output range.
  52:controller/utils/utils.h ****  * @return The mapped value in the output range.
  53:controller/utils/utils.h ****  */
  54:controller/utils/utils.h **** #define MAP(x, in_min, in_max, out_min, out_max) \
  55:controller/utils/utils.h ****     (((x) - (in_min)) * ((out_max) - (out_min)) / ((in_max) - (in_min)) + (out_min))
  56:controller/utils/utils.h **** 
  57:controller/utils/utils.h **** /**
  58:controller/utils/utils.h ****  * @brief Maps a uint16_t value from one range to another.
  59:controller/utils/utils.h ****  *
  60:controller/utils/utils.h ****  * @param x The value to map.
  61:controller/utils/utils.h ****  * @param in_min The lower bound of the input range.
  62:controller/utils/utils.h ****  * @param in_max The upper bound of the input range.
  63:controller/utils/utils.h ****  * @param out_min The lower bound of the output range.
  64:controller/utils/utils.h ****  * @param out_max The upper bound of the output range.
  65:controller/utils/utils.h ****  * @return The mapped value in the output range.
  66:controller/utils/utils.h ****  */
  67:controller/utils/utils.h **** static inline uint16_t map_uint16(uint16_t x, uint16_t in_min, uint16_t in_max, uint16_t out_min, u
  68:controller/utils/utils.h **** {
  69:controller/utils/utils.h ****     if (in_max == in_min)
  70:controller/utils/utils.h ****     {
  71:controller/utils/utils.h ****         return 0; // Avoid division by zero
ARM GAS  C:\Users\alireza\AppData\Local\Temp\ccjouU0f.s 			page 5


  72:controller/utils/utils.h ****     }
  73:controller/utils/utils.h ****     return (uint16_t)((x - in_min) * (out_max - out_min) / (in_max - in_min) + out_min);
  74:controller/utils/utils.h **** }
  75:controller/utils/utils.h **** 
  76:controller/utils/utils.h **** static inline float mapf(float x, float in_min, float in_max, float out_min, float out_max)
  77:controller/utils/utils.h **** {
  78:controller/utils/utils.h ****     if (in_max == in_min)
  79:controller/utils/utils.h ****     {
  80:controller/utils/utils.h ****         return 0.0f; // Avoid division by zero
  81:controller/utils/utils.h ****     }
  82:controller/utils/utils.h ****     return (x - in_min) * (out_max - out_min) / (in_max - in_min) + out_min;
  83:controller/utils/utils.h **** }
  84:controller/utils/utils.h **** 
  85:controller/utils/utils.h **** // http://en.wikipedia.org/wiki/Endianness
  86:controller/utils/utils.h **** inline uint16_t swap_endian_uint16(uint16_t x)
  68              		.loc 2 86 17 is_stmt 1 view .LVU11
  69              	.LBB20:
  87:controller/utils/utils.h **** {
  88:controller/utils/utils.h ****     return ((x << 8) | (x >> 8));
  70              		.loc 2 88 5 view .LVU12
  71              		.loc 2 88 22 is_stmt 0 view .LVU13
  72 001a 76BA     		rev16	r6, r6
  73              	.LVL4:
  74              		.loc 2 88 22 view .LVU14
  75              	.LBE20:
  76              	.LBE19:
  92:controller/utils/comms.c **** 
  93:controller/utils/comms.c **** 	/* Now we calculate the CRC, over the flag and payload */
  94:controller/utils/comms.c **** 	uint32_t crc = 0;
  77              		.loc 1 94 2 is_stmt 1 view .LVU15
  95:controller/utils/comms.c **** 	crc = crc32_inc(0, (void*)&flag, 1); // flag
  78              		.loc 1 95 2 view .LVU16
  79              		.loc 1 95 8 is_stmt 0 view .LVU17
  80 001c 0122     		movs	r2, #1
  81              	.LVL5:
  82              		.loc 1 95 8 view .LVU18
  83 001e 0DF10701 		add	r1, sp, #7
  84              	.LVL6:
  85              		.loc 1 95 8 view .LVU19
  86 0022 0020     		movs	r0, #0
  87              	.LVL7:
  88              		.loc 1 95 8 view .LVU20
  89 0024 FFF7FEFF 		bl	crc32_inc
  90              	.LVL8:
  96:controller/utils/comms.c **** 	crc = crc32_inc(crc, buf, size); // payload
  91              		.loc 1 96 2 is_stmt 1 view .LVU21
  92              		.loc 1 96 8 is_stmt 0 view .LVU22
  93 0028 2A46     		mov	r2, r5
  94 002a 3946     		mov	r1, r7
  95 002c FFF7FEFF 		bl	crc32_inc
  96              	.LVL9:
  97:controller/utils/comms.c **** 
  98:controller/utils/comms.c **** 	/* Converte the crc to big endian */
  99:controller/utils/comms.c **** 	uint32_t suffix = 0;
  97              		.loc 1 99 2 is_stmt 1 view .LVU23
 100:controller/utils/comms.c **** 	suffix = swap_endian_uint32(crc);
  98              		.loc 1 100 2 view .LVU24
ARM GAS  C:\Users\alireza\AppData\Local\Temp\ccjouU0f.s 			page 6


  99              	.LBB21:
 100              	.LBI21:
  89:controller/utils/utils.h **** }
  90:controller/utils/utils.h **** inline uint32_t swap_endian_uint32(uint32_t x)
 101              		.loc 2 90 17 view .LVU25
 102              	.LBB22:
  91:controller/utils/utils.h **** {
  92:controller/utils/utils.h ****     return (((x >> 24) & 0x000000ff) | ((x << 8) & 0x00ff0000) |
 103              		.loc 2 92 5 view .LVU26
 104              		.loc 2 92 44 is_stmt 0 view .LVU27
 105 0030 0402     		lsls	r4, r0, #8
 106              		.loc 2 92 50 view .LVU28
 107 0032 04F47F04 		and	r4, r4, #16711680
 108              		.loc 2 92 38 view .LVU29
 109 0036 44EA1064 		orr	r4, r4, r0, lsr #24
  93:controller/utils/utils.h ****             ((x >> 8) & 0x0000ff00) | ((x << 24) & 0xff000000));
 110              		.loc 2 93 17 view .LVU30
 111 003a 030A     		lsrs	r3, r0, #8
 112              		.loc 2 93 23 view .LVU31
 113 003c 03F47F43 		and	r3, r3, #65280
  92:controller/utils/utils.h ****             ((x >> 8) & 0x0000ff00) | ((x << 24) & 0xff000000));
 114              		.loc 2 92 64 view .LVU32
 115 0040 1C43     		orrs	r4, r4, r3
 116              		.loc 2 93 37 view .LVU33
 117 0042 44EA0064 		orr	r4, r4, r0, lsl #24
 118              	.LVL10:
 119              		.loc 2 93 37 view .LVU34
 120              	.LBE22:
 121              	.LBE21:
 101:controller/utils/comms.c **** 
 102:controller/utils/comms.c **** 	/* Form the packet in the transmit buffer */
 103:controller/utils/comms.c **** 	size_t tx_buffer_index = 0;
 122              		.loc 1 103 2 is_stmt 1 view .LVU35
 104:controller/utils/comms.c **** 	memcpy(tx_buffer, &prefix, sizeof(prefix)); // prefix to buffer
 123              		.loc 1 104 2 view .LVU36
 124 0046 DFF83090 		ldr	r9, .L3
 125 004a A9F80060 		strh	r6, [r9]	@ movhi
 105:controller/utils/comms.c **** 	tx_buffer_index += sizeof(prefix);
 126              		.loc 1 105 2 view .LVU37
 127              	.LVL11:
 106:controller/utils/comms.c **** 	memcpy(tx_buffer + tx_buffer_index, &flag, sizeof(flag)); // flag to buffer
 128              		.loc 1 106 2 view .LVU38
 129 004e 9DF80730 		ldrb	r3, [sp, #7]	@ zero_extendqisi2
 130 0052 89F80230 		strb	r3, [r9, #2]
 107:controller/utils/comms.c **** 	tx_buffer_index += sizeof(flag);
 131              		.loc 1 107 2 view .LVU39
 132              	.LVL12:
 108:controller/utils/comms.c **** 	memcpy(tx_buffer + tx_buffer_index, buf, size); // payload to buffer
 133              		.loc 1 108 2 view .LVU40
 134 0056 2A46     		mov	r2, r5
 135 0058 3946     		mov	r1, r7
 136 005a 09F10300 		add	r0, r9, #3
 137              	.LVL13:
 138              		.loc 1 108 2 is_stmt 0 view .LVU41
 139 005e FFF7FEFF 		bl	memcpy
 140              	.LVL14:
 109:controller/utils/comms.c **** 	tx_buffer_index += size;
ARM GAS  C:\Users\alireza\AppData\Local\Temp\ccjouU0f.s 			page 7


 141              		.loc 1 109 2 is_stmt 1 view .LVU42
 142              		.loc 1 109 18 is_stmt 0 view .LVU43
 143 0062 0335     		adds	r5, r5, #3
 144              	.LVL15:
 110:controller/utils/comms.c **** 	memcpy(tx_buffer + tx_buffer_index, &suffix, sizeof(suffix)); // suffix to buffer
 145              		.loc 1 110 2 is_stmt 1 view .LVU44
 146 0064 49F80540 		str	r4, [r9, r5]	@ unaligned
 111:controller/utils/comms.c **** 	tx_buffer_index += sizeof(suffix);
 147              		.loc 1 111 2 view .LVU45
 148              	.LVL16:
 112:controller/utils/comms.c **** 
 113:controller/utils/comms.c **** 	/* Finally transmit over USB */
 114:controller/utils/comms.c **** 
 115:controller/utils/comms.c **** 	CDC_Transmit_FS(tx_buffer, packet_size);
 149              		.loc 1 115 2 view .LVU46
 150 0068 4146     		mov	r1, r8
 151 006a 4846     		mov	r0, r9
 152 006c FFF7FEFF 		bl	CDC_Transmit_FS
 153              	.LVL17:
 116:controller/utils/comms.c **** }
 154              		.loc 1 116 1 is_stmt 0 view .LVU47
 155 0070 03B0     		add	sp, sp, #12
 156              		.cfi_def_cfa_offset 28
 157              		@ sp needed
 158 0072 BDE8F083 		pop	{r4, r5, r6, r7, r8, r9, pc}
 159              	.LVL18:
 160              	.L4:
 161              		.loc 1 116 1 view .LVU48
 162 0076 00BF     		.align	2
 163              	.L3:
 164 0078 00000000 		.word	tx_buffer
 165              		.cfi_endproc
 166              	.LFE233:
 168              		.section	.text.send_response,"ax",%progbits
 169              		.align	1
 170              		.global	send_response
 171              		.syntax unified
 172              		.thumb
 173              		.thumb_func
 175              	send_response:
 176              	.LVL19:
 177              	.LFB232:
  62:controller/utils/comms.c **** 
 178              		.loc 1 62 1 is_stmt 1 view -0
 179              		.cfi_startproc
 180              		@ args = 0, pretend = 0, frame = 0
 181              		@ frame_needed = 0, uses_anonymous_args = 0
  62:controller/utils/comms.c **** 
 182              		.loc 1 62 1 is_stmt 0 view .LVU50
 183 0000 38B5     		push	{r3, r4, r5, lr}
 184              		.cfi_def_cfa_offset 16
 185              		.cfi_offset 3, -16
 186              		.cfi_offset 4, -12
 187              		.cfi_offset 5, -8
 188              		.cfi_offset 14, -4
 189 0002 1446     		mov	r4, r2
  64:controller/utils/comms.c ****     {
ARM GAS  C:\Users\alireza\AppData\Local\Temp\ccjouU0f.s 			page 8


 190              		.loc 1 64 5 is_stmt 1 view .LVU51
  64:controller/utils/comms.c ****     {
 191              		.loc 1 64 8 is_stmt 0 view .LVU52
 192 0004 012B     		cmp	r3, #1
 193 0006 07D0     		beq	.L9
  70:controller/utils/comms.c ****         {
 194              		.loc 1 70 9 is_stmt 1 view .LVU53
  70:controller/utils/comms.c ****         {
 195              		.loc 1 70 12 is_stmt 0 view .LVU54
 196 0008 4AB9     		cbnz	r2, .L10
 197              	.LVL20:
 198              	.L7:
  76:controller/utils/comms.c **** }
 199              		.loc 1 76 2 is_stmt 1 view .LVU55
 200 000a 0122     		movs	r2, #1
 201 000c 4FF40051 		mov	r1, #8192
 202 0010 0748     		ldr	r0, .L11
 203 0012 FFF7FEFF 		bl	HAL_GPIO_WritePin
 204              	.LVL21:
  77:controller/utils/comms.c **** 
 205              		.loc 1 77 1 is_stmt 0 view .LVU56
 206 0016 38BD     		pop	{r3, r4, r5, pc}
 207              	.LVL22:
 208              	.L9:
  66:controller/utils/comms.c ****     }
 209              		.loc 1 66 9 is_stmt 1 view .LVU57
 210 0018 FFF7FEFF 		bl	transmit_crc_packet
 211              	.LVL23:
  66:controller/utils/comms.c ****     }
 212              		.loc 1 66 9 is_stmt 0 view .LVU58
 213 001c F5E7     		b	.L7
 214              	.LVL24:
 215              	.L10:
  72:controller/utils/comms.c ****             CDC_Transmit_FS(tx_buffer, size);
 216              		.loc 1 72 4 is_stmt 1 view .LVU59
 217 001e 054D     		ldr	r5, .L11+4
 218 0020 2846     		mov	r0, r5
 219              	.LVL25:
  72:controller/utils/comms.c ****             CDC_Transmit_FS(tx_buffer, size);
 220              		.loc 1 72 4 is_stmt 0 view .LVU60
 221 0022 FFF7FEFF 		bl	memcpy
 222              	.LVL26:
  73:controller/utils/comms.c ****         }
 223              		.loc 1 73 13 is_stmt 1 view .LVU61
 224 0026 A1B2     		uxth	r1, r4
 225 0028 2846     		mov	r0, r5
 226 002a FFF7FEFF 		bl	CDC_Transmit_FS
 227              	.LVL27:
 228 002e ECE7     		b	.L7
 229              	.L12:
 230              		.align	2
 231              	.L11:
 232 0030 00080240 		.word	1073874944
 233 0034 00000000 		.word	tx_buffer
 234              		.cfi_endproc
 235              	.LFE232:
 237              		.section	.rodata.comms_init.str1.4,"aMS",%progbits,1
ARM GAS  C:\Users\alireza\AppData\Local\Temp\ccjouU0f.s 			page 9


 238              		.align	2
 239              	.LC0:
 240 0000 636F6D6D 		.ascii	"comms_task\000"
 240      735F7461 
 240      736B00
 241              		.section	.text.comms_init,"ax",%progbits
 242              		.align	1
 243              		.global	comms_init
 244              		.syntax unified
 245              		.thumb
 246              		.thumb_func
 248              	comms_init:
 249              	.LFB234:
 117:controller/utils/comms.c **** 
 118:controller/utils/comms.c **** 
 119:controller/utils/comms.c **** 
 120:controller/utils/comms.c **** // ==================== Initialization ====================
 121:controller/utils/comms.c **** void comms_init(void)
 122:controller/utils/comms.c **** {
 250              		.loc 1 122 1 view -0
 251              		.cfi_startproc
 252              		@ args = 0, pretend = 0, frame = 40
 253              		@ frame_needed = 0, uses_anonymous_args = 0
 254 0000 10B5     		push	{r4, lr}
 255              		.cfi_def_cfa_offset 8
 256              		.cfi_offset 4, -8
 257              		.cfi_offset 14, -4
 258 0002 8AB0     		sub	sp, sp, #40
 259              		.cfi_def_cfa_offset 48
 123:controller/utils/comms.c **** 	usb_rx_queue = osMessageQueueNew(10, sizeof(usb_packet_ptr_t), NULL);
 260              		.loc 1 123 2 view .LVU63
 261              		.loc 1 123 17 is_stmt 0 view .LVU64
 262 0004 0022     		movs	r2, #0
 263 0006 0821     		movs	r1, #8
 264 0008 0A20     		movs	r0, #10
 265 000a FFF7FEFF 		bl	osMessageQueueNew
 266              	.LVL28:
 267              		.loc 1 123 15 discriminator 1 view .LVU65
 268 000e 0B4B     		ldr	r3, .L15
 269 0010 1860     		str	r0, [r3]
 124:controller/utils/comms.c **** 
 125:controller/utils/comms.c ****     const osThreadAttr_t comms_task_attrs = {
 270              		.loc 1 125 5 is_stmt 1 view .LVU66
 271              		.loc 1 125 26 is_stmt 0 view .LVU67
 272 0012 01AC     		add	r4, sp, #4
 273 0014 2422     		movs	r2, #36
 274 0016 0021     		movs	r1, #0
 275 0018 2046     		mov	r0, r4
 276 001a FFF7FEFF 		bl	memset
 277              	.LVL29:
 278 001e 084B     		ldr	r3, .L15+4
 279 0020 0193     		str	r3, [sp, #4]
 280 0022 4FF48053 		mov	r3, #4096
 281 0026 0693     		str	r3, [sp, #24]
 282 0028 2823     		movs	r3, #40
 283 002a 0793     		str	r3, [sp, #28]
 126:controller/utils/comms.c ****         .name = "comms_task",
ARM GAS  C:\Users\alireza\AppData\Local\Temp\ccjouU0f.s 			page 10


 127:controller/utils/comms.c ****         .stack_size = 1024 * 4,
 128:controller/utils/comms.c ****         .priority = osPriorityHigh,
 129:controller/utils/comms.c ****     };
 130:controller/utils/comms.c ****     osThreadNew(comms_task, NULL, &comms_task_attrs);
 284              		.loc 1 130 5 is_stmt 1 view .LVU68
 285 002c 2246     		mov	r2, r4
 286 002e 0021     		movs	r1, #0
 287 0030 0448     		ldr	r0, .L15+8
 288 0032 FFF7FEFF 		bl	osThreadNew
 289              	.LVL30:
 131:controller/utils/comms.c **** 
 132:controller/utils/comms.c **** }
 290              		.loc 1 132 1 is_stmt 0 view .LVU69
 291 0036 0AB0     		add	sp, sp, #40
 292              		.cfi_def_cfa_offset 8
 293              		@ sp needed
 294 0038 10BD     		pop	{r4, pc}
 295              	.L16:
 296 003a 00BF     		.align	2
 297              	.L15:
 298 003c 00000000 		.word	usb_rx_queue
 299 0040 00000000 		.word	.LC0
 300 0044 00000000 		.word	comms_task
 301              		.cfi_endproc
 302              	.LFE234:
 304              		.section	.rodata.process_plain_command.str1.4,"aMS",%progbits,1
 305              		.align	2
 306              	.LC1:
 307 0000 30303200 		.ascii	"002\000"
 308              		.align	2
 309              	.LC2:
 310 0004 4A696D53 		.ascii	"JimStim dev.2025.07\000"
 310      74696D20 
 310      6465762E 
 310      32303235 
 310      2E303700 
 311              		.section	.text.process_plain_command,"ax",%progbits
 312              		.align	1
 313              		.global	process_plain_command
 314              		.syntax unified
 315              		.thumb
 316              		.thumb_func
 318              	process_plain_command:
 319              	.LVL31:
 320              	.LFB236:
 133:controller/utils/comms.c **** 
 134:controller/utils/comms.c **** // ==================== Communication Task ====================
 135:controller/utils/comms.c **** void comms_task(void *argument)
 136:controller/utils/comms.c **** {
 137:controller/utils/comms.c ****     usb_packet_ptr_t packet;
 138:controller/utils/comms.c ****     for (;;)
 139:controller/utils/comms.c ****     {
 140:controller/utils/comms.c ****         if (osMessageQueueGet(usb_rx_queue, &packet, NULL, osWaitForever) == osOK)
 141:controller/utils/comms.c ****         {
 142:controller/utils/comms.c ****             process_command(packet.data, packet.len);
 143:controller/utils/comms.c ****         }
 144:controller/utils/comms.c ****     }
ARM GAS  C:\Users\alireza\AppData\Local\Temp\ccjouU0f.s 			page 11


 145:controller/utils/comms.c **** }
 146:controller/utils/comms.c **** 
 147:controller/utils/comms.c **** // ==================== Command Processing ====================
 148:controller/utils/comms.c **** bool process_plain_command(uint8_t *request, uint16_t size)
 149:controller/utils/comms.c **** {
 321              		.loc 1 149 1 is_stmt 1 view -0
 322              		.cfi_startproc
 323              		@ args = 0, pretend = 0, frame = 0
 324              		@ frame_needed = 0, uses_anonymous_args = 0
 325              		.loc 1 149 1 is_stmt 0 view .LVU71
 326 0000 08B5     		push	{r3, lr}
 327              		.cfi_def_cfa_offset 8
 328              		.cfi_offset 3, -8
 329              		.cfi_offset 14, -4
 150:controller/utils/comms.c ****     uint8_t first_byte = request[0];
 330              		.loc 1 150 5 is_stmt 1 view .LVU72
 331              		.loc 1 150 13 is_stmt 0 view .LVU73
 332 0002 0378     		ldrb	r3, [r0]	@ zero_extendqisi2
 333              	.LVL32:
 151:controller/utils/comms.c ****     switch (first_byte)
 334              		.loc 1 151 5 is_stmt 1 view .LVU74
 335 0004 433B     		subs	r3, r3, #67
 336 0006 102B     		cmp	r3, #16
 337 0008 32D8     		bhi	.L25
 338 000a DFE803F0 		tbb	[pc, r3]
 339              	.L20:
 340 000e 21       		.byte	(.L24-.L20)/2
 341 000f 31       		.byte	(.L25-.L20)/2
 342 0010 31       		.byte	(.L25-.L20)/2
 343 0011 09       		.byte	(.L23-.L20)/2
 344 0012 31       		.byte	(.L25-.L20)/2
 345 0013 31       		.byte	(.L25-.L20)/2
 346 0014 29       		.byte	(.L22-.L20)/2
 347 0015 31       		.byte	(.L25-.L20)/2
 348 0016 31       		.byte	(.L25-.L20)/2
 349 0017 31       		.byte	(.L25-.L20)/2
 350 0018 31       		.byte	(.L25-.L20)/2
 351 0019 31       		.byte	(.L25-.L20)/2
 352 001a 31       		.byte	(.L25-.L20)/2
 353 001b 31       		.byte	(.L25-.L20)/2
 354 001c 19       		.byte	(.L21-.L20)/2
 355 001d 31       		.byte	(.L25-.L20)/2
 356 001e 11       		.byte	(.L19-.L20)/2
 357 001f 00       		.p2align 1
 358              	.L23:
 152:controller/utils/comms.c ****     {
 153:controller/utils/comms.c ****     case TS_COMMAND_F:
 154:controller/utils/comms.c ****     #ifndef TS_USE_OLD_PROTOCOL
 155:controller/utils/comms.c ****         send_response(0, (uint8_t*)TS_PROTOCOL, sizeof(TS_PROTOCOL) - 1, TS_PLAIN);
 359              		.loc 1 155 9 view .LVU75
 360 0020 0023     		movs	r3, #0
 361 0022 0322     		movs	r2, #3
 362 0024 1349     		ldr	r1, .L27
 363              	.LVL33:
 364              		.loc 1 155 9 is_stmt 0 view .LVU76
 365 0026 1846     		mov	r0, r3
 366              	.LVL34:
ARM GAS  C:\Users\alireza\AppData\Local\Temp\ccjouU0f.s 			page 12


 367              		.loc 1 155 9 view .LVU77
 368 0028 FFF7FEFF 		bl	send_response
 369              	.LVL35:
 156:controller/utils/comms.c ****         return true;
 370              		.loc 1 156 9 is_stmt 1 view .LVU78
 371              		.loc 1 156 16 is_stmt 0 view .LVU79
 372 002c 0120     		movs	r0, #1
 373 002e 20E0     		b	.L18
 374              	.LVL36:
 375              	.L19:
 157:controller/utils/comms.c ****     #endif
 158:controller/utils/comms.c ****         break;
 376              		.loc 1 158 9 is_stmt 1 view .LVU80
 159:controller/utils/comms.c ****     case TS_HELLO_COMMAND:
 160:controller/utils/comms.c ****         send_response(0, (uint8_t*)TS_SIGNATURE, sizeof(TS_SIGNATURE) - 1, TS_PLAIN);
 377              		.loc 1 160 9 view .LVU81
 378 0030 0023     		movs	r3, #0
 379 0032 1322     		movs	r2, #19
 380 0034 1049     		ldr	r1, .L27+4
 381              	.LVL37:
 382              		.loc 1 160 9 is_stmt 0 view .LVU82
 383 0036 1846     		mov	r0, r3
 384              	.LVL38:
 385              		.loc 1 160 9 view .LVU83
 386 0038 FFF7FEFF 		bl	send_response
 387              	.LVL39:
 161:controller/utils/comms.c ****         return true;
 388              		.loc 1 161 9 is_stmt 1 view .LVU84
 389              		.loc 1 161 16 is_stmt 0 view .LVU85
 390 003c 0120     		movs	r0, #1
 391 003e 18E0     		b	.L18
 392              	.LVL40:
 393              	.L21:
 162:controller/utils/comms.c ****         break;
 394              		.loc 1 162 9 is_stmt 1 view .LVU86
 163:controller/utils/comms.c ****     case TS_QUERY_COMMAND:
 164:controller/utils/comms.c ****         send_response(0, (uint8_t*)TS_SIGNATURE, sizeof(TS_SIGNATURE) - 1, TS_PLAIN);
 395              		.loc 1 164 9 view .LVU87
 396 0040 0023     		movs	r3, #0
 397 0042 1322     		movs	r2, #19
 398 0044 0C49     		ldr	r1, .L27+4
 399              	.LVL41:
 400              		.loc 1 164 9 is_stmt 0 view .LVU88
 401 0046 1846     		mov	r0, r3
 402              	.LVL42:
 403              		.loc 1 164 9 view .LVU89
 404 0048 FFF7FEFF 		bl	send_response
 405              	.LVL43:
 165:controller/utils/comms.c ****         return true;
 406              		.loc 1 165 9 is_stmt 1 view .LVU90
 407              		.loc 1 165 16 is_stmt 0 view .LVU91
 408 004c 0120     		movs	r0, #1
 409 004e 10E0     		b	.L18
 410              	.LVL44:
 411              	.L24:
 166:controller/utils/comms.c ****         break;
 412              		.loc 1 166 9 is_stmt 1 view .LVU92
ARM GAS  C:\Users\alireza\AppData\Local\Temp\ccjouU0f.s 			page 13


 167:controller/utils/comms.c ****     case TS_TEST_COMMS_COMMAND:
 168:controller/utils/comms.c ****         send_response(0, (uint8_t *)0xFF, 1, TS_PLAIN);
 413              		.loc 1 168 9 view .LVU93
 414 0050 0023     		movs	r3, #0
 415 0052 0122     		movs	r2, #1
 416 0054 FF21     		movs	r1, #255
 417              	.LVL45:
 418              		.loc 1 168 9 is_stmt 0 view .LVU94
 419 0056 1846     		mov	r0, r3
 420              	.LVL46:
 421              		.loc 1 168 9 view .LVU95
 422 0058 FFF7FEFF 		bl	send_response
 423              	.LVL47:
 169:controller/utils/comms.c ****         return true;
 424              		.loc 1 169 9 is_stmt 1 view .LVU96
 425              		.loc 1 169 16 is_stmt 0 view .LVU97
 426 005c 0120     		movs	r0, #1
 427 005e 08E0     		b	.L18
 428              	.LVL48:
 429              	.L22:
 170:controller/utils/comms.c ****         break;
 430              		.loc 1 170 9 is_stmt 1 view .LVU98
 171:controller/utils/comms.c ****     case TS_CAN_ID_COMMAND:
 172:controller/utils/comms.c ****         send_response(0, (uint8_t*)TS_CAN_ID, sizeof(TS_CAN_ID) - 1, TS_PLAIN);
 431              		.loc 1 172 9 view .LVU99
 432 0060 0023     		movs	r3, #0
 433 0062 1A46     		mov	r2, r3
 434 0064 1946     		mov	r1, r3
 435              	.LVL49:
 436              		.loc 1 172 9 is_stmt 0 view .LVU100
 437 0066 1846     		mov	r0, r3
 438              	.LVL50:
 439              		.loc 1 172 9 view .LVU101
 440 0068 FFF7FEFF 		bl	send_response
 441              	.LVL51:
 173:controller/utils/comms.c ****         return true;
 442              		.loc 1 173 9 is_stmt 1 view .LVU102
 443              		.loc 1 173 16 is_stmt 0 view .LVU103
 444 006c 0120     		movs	r0, #1
 445 006e 00E0     		b	.L18
 446              	.LVL52:
 447              	.L25:
 151:controller/utils/comms.c ****     {
 448              		.loc 1 151 5 view .LVU104
 449 0070 0020     		movs	r0, #0
 450              	.LVL53:
 451              	.L18:
 174:controller/utils/comms.c ****         break;
 175:controller/utils/comms.c **** 
 176:controller/utils/comms.c ****     default:
 177:controller/utils/comms.c ****         break;
 178:controller/utils/comms.c ****     }
 179:controller/utils/comms.c ****         // This wasn't a valid command
 180:controller/utils/comms.c ****         return false;
 181:controller/utils/comms.c ****     
 182:controller/utils/comms.c **** }
 452              		.loc 1 182 1 view .LVU105
ARM GAS  C:\Users\alireza\AppData\Local\Temp\ccjouU0f.s 			page 14


 453 0072 08BD     		pop	{r3, pc}
 454              	.L28:
 455              		.align	2
 456              	.L27:
 457 0074 00000000 		.word	.LC1
 458 0078 04000000 		.word	.LC2
 459              		.cfi_endproc
 460              	.LFE236:
 462              		.section	.text.handle_page_read_command,"ax",%progbits
 463              		.align	1
 464              		.global	handle_page_read_command
 465              		.syntax unified
 466              		.thumb
 467              		.thumb_func
 469              	handle_page_read_command:
 470              	.LVL54:
 471              	.LFB238:
 183:controller/utils/comms.c **** 
 184:controller/utils/comms.c **** void process_command(uint8_t *request, uint16_t size)
 185:controller/utils/comms.c **** {
 186:controller/utils/comms.c ****     if (process_plain_command(request, size))
 187:controller/utils/comms.c ****     {
 188:controller/utils/comms.c ****         return;
 189:controller/utils/comms.c ****     }
 190:controller/utils/comms.c ****     uint16_t packet_size = 0;
 191:controller/utils/comms.c ****     uint32_t packet_crc = 0;
 192:controller/utils/comms.c ****     uint32_t calculated_packet_crc = 0;
 193:controller/utils/comms.c ****     bool is_packet_valid = false;
 194:controller/utils/comms.c ****     if (size > 5)
 195:controller/utils/comms.c ****     {
 196:controller/utils/comms.c ****         packet_size = swap_endian_uint16(*(uint16_t *)request);
 197:controller/utils/comms.c ****         packet_crc = swap_endian_uint32(*(uint32_t *)request[size - 1 - TS_PACKET_CRC_SIZE]);
 198:controller/utils/comms.c ****         calculated_packet_crc = crc32_inc(0, (void *)(request + TS_PACKET_PREFIX_SIZE), size - TS_P
 199:controller/utils/comms.c ****     }
 200:controller/utils/comms.c ****     if (calculated_packet_crc == packet_crc)
 201:controller/utils/comms.c ****     {
 202:controller/utils/comms.c ****         is_packet_valid = true;
 203:controller/utils/comms.c ****     }
 204:controller/utils/comms.c **** 
 205:controller/utils/comms.c ****     uint8_t command = request[2];
 206:controller/utils/comms.c **** 
 207:controller/utils/comms.c ****     switch (command)
 208:controller/utils/comms.c ****     {
 209:controller/utils/comms.c ****     case TS_TEST_COMMS_COMMAND:
 210:controller/utils/comms.c ****         send_response(TS_RESPONSE_OK, (uint8_t *)0xFF, 1, TS_CRC);
 211:controller/utils/comms.c ****         return;
 212:controller/utils/comms.c ****         break;
 213:controller/utils/comms.c **** 
 214:controller/utils/comms.c ****     case TS_COMMAND_F:
 215:controller/utils/comms.c **** #ifndef TS_USE_OLD_PROTOCOL
 216:controller/utils/comms.c ****         send_response(TS_RESPONSE_OK, (uint8_t *)TS_PROTOCOL, sizeof(TS_PROTOCOL) - 1, TS_CRC);
 217:controller/utils/comms.c **** #endif
 218:controller/utils/comms.c ****         return;
 219:controller/utils/comms.c ****         break;
 220:controller/utils/comms.c **** 
 221:controller/utils/comms.c ****     case TS_CAN_ID_COMMAND:
 222:controller/utils/comms.c ****         send_response(TS_RESPONSE_OK, (uint8_t *)TS_CAN_ID, sizeof(TS_CAN_ID), TS_CRC);
ARM GAS  C:\Users\alireza\AppData\Local\Temp\ccjouU0f.s 			page 15


 223:controller/utils/comms.c ****         return;
 224:controller/utils/comms.c ****         break;
 225:controller/utils/comms.c **** 
 226:controller/utils/comms.c ****     case TS_QUERY_COMMAND:
 227:controller/utils/comms.c ****         send_response(TS_RESPONSE_OK, (uint8_t *)TS_SIGNATURE, sizeof(TS_SIGNATURE) - 1, TS_CRC);
 228:controller/utils/comms.c ****         return;
 229:controller/utils/comms.c ****         break;
 230:controller/utils/comms.c **** 
 231:controller/utils/comms.c ****     case TS_HELLO_COMMAND:
 232:controller/utils/comms.c ****         send_response(TS_RESPONSE_OK, (uint8_t *)TS_SIGNATURE, sizeof(TS_SIGNATURE), TS_CRC);
 233:controller/utils/comms.c ****         return;
 234:controller/utils/comms.c ****         break;
 235:controller/utils/comms.c ****     case TS_SERIAL_INFO_COMMAND:
 236:controller/utils/comms.c ****         uint8_t response[5];
 237:controller/utils/comms.c ****         response[0] = 2; // serial version
 238:controller/utils/comms.c ****         *(uint16_t *)&response[1] = swap_endian_uint16(TS_TABLE_BLOCKING_FACTOR);
 239:controller/utils/comms.c ****         *(uint16_t *)&response[3] = swap_endian_uint16(TS_BLOCKING_FACTOR);
 240:controller/utils/comms.c ****         send_response(TS_RESPONSE_OK, (uint8_t *)response, sizeof(response), TS_CRC);
 241:controller/utils/comms.c ****         return;
 242:controller/utils/comms.c ****         break;
 243:controller/utils/comms.c **** 
 244:controller/utils/comms.c ****     case TS_OUTPUT_COMMAND:
 245:controller/utils/comms.c ****         send_response(TS_RESPONSE_OK, (uint8_t *)&runtime, sizeof(runtime), TS_CRC);
 246:controller/utils/comms.c ****         return;
 247:controller/utils/comms.c ****         break;
 248:controller/utils/comms.c ****     case TS_READ_COMMAND:
 249:controller/utils/comms.c ****         uint16_t page = 0;
 250:controller/utils/comms.c ****         uint16_t offset = *(uint16_t *)&request[3];
 251:controller/utils/comms.c ****         uint16_t size = *(uint16_t *)&request[5];
 252:controller/utils/comms.c ****         handle_page_read_command(page, offset, size);
 253:controller/utils/comms.c ****         return;
 254:controller/utils/comms.c ****         break;
 255:controller/utils/comms.c ****     case TS_CRC_CHECK_COMMAND:
 256:controller/utils/comms.c ****         uint32_t page_crc = crc32_inc(0, (uint8_t *)&config, sizeof(config));
 257:controller/utils/comms.c ****         page_crc = swap_endian_uint32(page_crc);
 258:controller/utils/comms.c ****         send_response(TS_RESPONSE_OK, (uint8_t *)&page_crc, sizeof(page_crc), TS_CRC);
 259:controller/utils/comms.c ****         return;
 260:controller/utils/comms.c ****         break;
 261:controller/utils/comms.c **** 
 262:controller/utils/comms.c ****     case TS_CHUNK_WRITE_COMMAND:
 263:controller/utils/comms.c ****     {
 264:controller/utils/comms.c ****         uint16_t page = 0;
 265:controller/utils/comms.c ****         uint16_t offset = *(uint16_t *)&request[3];
 266:controller/utils/comms.c ****         uint16_t size = *(uint16_t *)&request[5];
 267:controller/utils/comms.c ****         memcpy((uint8_t *)&config + offset, &request[7], size);
 268:controller/utils/comms.c ****         send_response(TS_RESPONSE_OK, NULL, 0, TS_CRC);
 269:controller/utils/comms.c ****         return;
 270:controller/utils/comms.c ****         break;
 271:controller/utils/comms.c ****     }
 272:controller/utils/comms.c ****     case TS_SINGLE_WRITE_COMMAND:
 273:controller/utils/comms.c ****     {
 274:controller/utils/comms.c ****         uint16_t page = 0;
 275:controller/utils/comms.c ****         uint16_t offset = *(uint16_t *)&request[3];
 276:controller/utils/comms.c ****         uint16_t size = *(uint16_t *)&request[5];
 277:controller/utils/comms.c ****         memcpy((uint8_t *)&config + offset, &request[7], size);
 278:controller/utils/comms.c ****         send_response(TS_RESPONSE_OK, NULL, 0, TS_CRC);
 279:controller/utils/comms.c ****         return;
ARM GAS  C:\Users\alireza\AppData\Local\Temp\ccjouU0f.s 			page 16


 280:controller/utils/comms.c ****         break;
 281:controller/utils/comms.c ****     }
 282:controller/utils/comms.c **** 
 283:controller/utils/comms.c ****     case TS_BURN_COMMAND:
 284:controller/utils/comms.c ****         // handle burn command and if it was ok, then send ok status
 285:controller/utils/comms.c ****         if (controller_save_configuration())
 286:controller/utils/comms.c ****         {
 287:controller/utils/comms.c ****             send_response(TS_RESPONSE_BURN_OK, NULL, 0, TS_CRC);
 288:controller/utils/comms.c ****         }
 289:controller/utils/comms.c ****         return;
 290:controller/utils/comms.c ****         break;
 291:controller/utils/comms.c ****     default:
 292:controller/utils/comms.c ****         break;
 293:controller/utils/comms.c ****     }
 294:controller/utils/comms.c ****     HAL_GPIO_TogglePin(LED_GPIO_Port, LED_Pin);
 295:controller/utils/comms.c **** }
 296:controller/utils/comms.c **** 
 297:controller/utils/comms.c **** void handle_page_read_command(uint16_t page, uint16_t offset, uint16_t count)
 298:controller/utils/comms.c **** {
 472              		.loc 1 298 1 is_stmt 1 view -0
 473              		.cfi_startproc
 474              		@ args = 0, pretend = 0, frame = 0
 475              		@ frame_needed = 0, uses_anonymous_args = 0
 299:controller/utils/comms.c **** 	if (page > 1)
 476              		.loc 1 299 2 view .LVU107
 477              		.loc 1 299 5 is_stmt 0 view .LVU108
 478 0000 0128     		cmp	r0, #1
 479 0002 0CD8     		bhi	.L32
 298:controller/utils/comms.c **** 	if (page > 1)
 480              		.loc 1 298 1 view .LVU109
 481 0004 08B5     		push	{r3, lr}
 482              		.cfi_def_cfa_offset 8
 483              		.cfi_offset 3, -8
 484              		.cfi_offset 14, -4
 300:controller/utils/comms.c **** 	{
 301:controller/utils/comms.c **** 		return;
 302:controller/utils/comms.c **** 	}
 303:controller/utils/comms.c **** 	if ((offset + count) > TS_PAGE_SIZE)
 485              		.loc 1 303 2 is_stmt 1 view .LVU110
 486              		.loc 1 303 14 is_stmt 0 view .LVU111
 487 0006 8B18     		adds	r3, r1, r2
 488              		.loc 1 303 5 view .LVU112
 489 0008 B3F5965F 		cmp	r3, #4800
 490 000c 00D9     		bls	.L35
 491              	.LVL55:
 492              	.L29:
 304:controller/utils/comms.c **** 	{
 305:controller/utils/comms.c **** 		return;
 306:controller/utils/comms.c **** 	}
 307:controller/utils/comms.c ****     
 308:controller/utils/comms.c **** 	send_response(TS_RESPONSE_OK, (uint8_t*)&config + offset, count, TS_CRC);
 309:controller/utils/comms.c **** }
 493              		.loc 1 309 1 view .LVU113
 494 000e 08BD     		pop	{r3, pc}
 495              	.LVL56:
 496              	.L35:
 308:controller/utils/comms.c **** }
ARM GAS  C:\Users\alireza\AppData\Local\Temp\ccjouU0f.s 			page 17


 497              		.loc 1 308 2 is_stmt 1 view .LVU114
 498 0010 0123     		movs	r3, #1
 499 0012 0348     		ldr	r0, .L36
 500              	.LVL57:
 308:controller/utils/comms.c **** }
 501              		.loc 1 308 2 is_stmt 0 view .LVU115
 502 0014 0144     		add	r1, r1, r0
 503              	.LVL58:
 308:controller/utils/comms.c **** }
 504              		.loc 1 308 2 view .LVU116
 505 0016 0020     		movs	r0, #0
 506 0018 FFF7FEFF 		bl	send_response
 507              	.LVL59:
 308:controller/utils/comms.c **** }
 508              		.loc 1 308 2 view .LVU117
 509 001c F7E7     		b	.L29
 510              	.LVL60:
 511              	.L32:
 512              		.cfi_def_cfa_offset 0
 513              		.cfi_restore 3
 514              		.cfi_restore 14
 308:controller/utils/comms.c **** }
 515              		.loc 1 308 2 view .LVU118
 516 001e 7047     		bx	lr
 517              	.L37:
 518              		.align	2
 519              	.L36:
 520 0020 00000000 		.word	config
 521              		.cfi_endproc
 522              	.LFE238:
 524              		.section	.text.process_command,"ax",%progbits
 525              		.align	1
 526              		.global	process_command
 527              		.syntax unified
 528              		.thumb
 529              		.thumb_func
 531              	process_command:
 532              	.LVL61:
 533              	.LFB237:
 185:controller/utils/comms.c ****     if (process_plain_command(request, size))
 534              		.loc 1 185 1 is_stmt 1 view -0
 535              		.cfi_startproc
 536              		@ args = 0, pretend = 0, frame = 8
 537              		@ frame_needed = 0, uses_anonymous_args = 0
 185:controller/utils/comms.c ****     if (process_plain_command(request, size))
 538              		.loc 1 185 1 is_stmt 0 view .LVU120
 539 0000 30B5     		push	{r4, r5, lr}
 540              		.cfi_def_cfa_offset 12
 541              		.cfi_offset 4, -12
 542              		.cfi_offset 5, -8
 543              		.cfi_offset 14, -4
 544 0002 83B0     		sub	sp, sp, #12
 545              		.cfi_def_cfa_offset 24
 546 0004 0546     		mov	r5, r0
 547 0006 0C46     		mov	r4, r1
 186:controller/utils/comms.c ****     {
 548              		.loc 1 186 5 is_stmt 1 view .LVU121
ARM GAS  C:\Users\alireza\AppData\Local\Temp\ccjouU0f.s 			page 18


 186:controller/utils/comms.c ****     {
 549              		.loc 1 186 9 is_stmt 0 view .LVU122
 550 0008 FFF7FEFF 		bl	process_plain_command
 551              	.LVL62:
 186:controller/utils/comms.c ****     {
 552              		.loc 1 186 8 discriminator 1 view .LVU123
 553 000c 0028     		cmp	r0, #0
 554 000e 40F0B380 		bne	.L38
 190:controller/utils/comms.c ****     uint32_t packet_crc = 0;
 555              		.loc 1 190 5 is_stmt 1 view .LVU124
 556              	.LVL63:
 191:controller/utils/comms.c ****     uint32_t calculated_packet_crc = 0;
 557              		.loc 1 191 5 view .LVU125
 192:controller/utils/comms.c ****     bool is_packet_valid = false;
 558              		.loc 1 192 5 view .LVU126
 193:controller/utils/comms.c ****     if (size > 5)
 559              		.loc 1 193 5 view .LVU127
 194:controller/utils/comms.c ****     {
 560              		.loc 1 194 5 view .LVU128
 194:controller/utils/comms.c ****     {
 561              		.loc 1 194 8 is_stmt 0 view .LVU129
 562 0012 052C     		cmp	r4, #5
 563 0014 21D8     		bhi	.L57
 564              	.LVL64:
 565              	.L40:
 200:controller/utils/comms.c ****     {
 566              		.loc 1 200 5 is_stmt 1 view .LVU130
 202:controller/utils/comms.c ****     }
 567              		.loc 1 202 9 view .LVU131
 205:controller/utils/comms.c **** 
 568              		.loc 1 205 5 view .LVU132
 205:controller/utils/comms.c **** 
 569              		.loc 1 205 13 is_stmt 0 view .LVU133
 570 0016 AB78     		ldrb	r3, [r5, #2]	@ zero_extendqisi2
 571              	.LVL65:
 207:controller/utils/comms.c ****     {
 572              		.loc 1 207 5 is_stmt 1 view .LVU134
 573 0018 423B     		subs	r3, r3, #66
 574 001a 352B     		cmp	r3, #53
 575 001c 00F2A780 		bhi	.L41
 576 0020 DFE803F0 		tbb	[pc, r3]
 577              	.L43:
 578 0024 9B       		.byte	(.L54-.L43)/2
 579 0025 20       		.byte	(.L53-.L43)/2
 580 0026 A5       		.byte	(.L41-.L43)/2
 581 0027 A5       		.byte	(.L41-.L43)/2
 582 0028 27       		.byte	(.L52-.L43)/2
 583 0029 A5       		.byte	(.L41-.L43)/2
 584 002a A5       		.byte	(.L41-.L43)/2
 585 002b 2E       		.byte	(.L51-.L43)/2
 586 002c A5       		.byte	(.L41-.L43)/2
 587 002d A5       		.byte	(.L41-.L43)/2
 588 002e A5       		.byte	(.L41-.L43)/2
 589 002f A5       		.byte	(.L41-.L43)/2
 590 0030 A5       		.byte	(.L41-.L43)/2
 591 0031 52       		.byte	(.L50-.L43)/2
 592 0032 A5       		.byte	(.L41-.L43)/2
ARM GAS  C:\Users\alireza\AppData\Local\Temp\ccjouU0f.s 			page 19


 593 0033 35       		.byte	(.L49-.L43)/2
 594 0034 A5       		.byte	(.L41-.L43)/2
 595 0035 3C       		.byte	(.L48-.L43)/2
 596 0036 A5       		.byte	(.L41-.L43)/2
 597 0037 A5       		.byte	(.L41-.L43)/2
 598 0038 A5       		.byte	(.L41-.L43)/2
 599 0039 7B       		.byte	(.L47-.L43)/2
 600 003a A5       		.byte	(.L41-.L43)/2
 601 003b A5       		.byte	(.L41-.L43)/2
 602 003c A5       		.byte	(.L41-.L43)/2
 603 003d A5       		.byte	(.L41-.L43)/2
 604 003e A5       		.byte	(.L41-.L43)/2
 605 003f A5       		.byte	(.L41-.L43)/2
 606 0040 A5       		.byte	(.L41-.L43)/2
 607 0041 A5       		.byte	(.L41-.L43)/2
 608 0042 A5       		.byte	(.L41-.L43)/2
 609 0043 A5       		.byte	(.L41-.L43)/2
 610 0044 A5       		.byte	(.L41-.L43)/2
 611 0045 A5       		.byte	(.L41-.L43)/2
 612 0046 A5       		.byte	(.L41-.L43)/2
 613 0047 A5       		.byte	(.L41-.L43)/2
 614 0048 43       		.byte	(.L46-.L43)/2
 615 0049 A5       		.byte	(.L41-.L43)/2
 616 004a A5       		.byte	(.L41-.L43)/2
 617 004b A5       		.byte	(.L41-.L43)/2
 618 004c A5       		.byte	(.L41-.L43)/2
 619 004d 61       		.byte	(.L45-.L43)/2
 620 004e A5       		.byte	(.L41-.L43)/2
 621 004f A5       		.byte	(.L41-.L43)/2
 622 0050 A5       		.byte	(.L41-.L43)/2
 623 0051 A5       		.byte	(.L41-.L43)/2
 624 0052 A5       		.byte	(.L41-.L43)/2
 625 0053 A5       		.byte	(.L41-.L43)/2
 626 0054 59       		.byte	(.L44-.L43)/2
 627 0055 A5       		.byte	(.L41-.L43)/2
 628 0056 A5       		.byte	(.L41-.L43)/2
 629 0057 A5       		.byte	(.L41-.L43)/2
 630 0058 A5       		.byte	(.L41-.L43)/2
 631 0059 8B       		.byte	(.L42-.L43)/2
 632              	.LVL66:
 633              		.p2align 1
 634              	.L57:
 196:controller/utils/comms.c ****         packet_crc = swap_endian_uint32(*(uint32_t *)request[size - 1 - TS_PACKET_CRC_SIZE]);
 635              		.loc 1 196 9 view .LVU135
 197:controller/utils/comms.c ****         calculated_packet_crc = crc32_inc(0, (void *)(request + TS_PACKET_PREFIX_SIZE), size - TS_P
 636              		.loc 1 197 9 view .LVU136
 198:controller/utils/comms.c ****     }
 637              		.loc 1 198 9 view .LVU137
 198:controller/utils/comms.c ****     }
 638              		.loc 1 198 33 is_stmt 0 view .LVU138
 639 005a A21F     		subs	r2, r4, #6
 640 005c A91C     		adds	r1, r5, #2
 641 005e FFF7FEFF 		bl	crc32_inc
 642              	.LVL67:
 198:controller/utils/comms.c ****     }
 643              		.loc 1 198 33 view .LVU139
 644 0062 D8E7     		b	.L40
ARM GAS  C:\Users\alireza\AppData\Local\Temp\ccjouU0f.s 			page 20


 645              	.LVL68:
 646              	.L53:
 647              	.LBB23:
 210:controller/utils/comms.c ****         return;
 648              		.loc 1 210 9 is_stmt 1 view .LVU140
 649 0064 0123     		movs	r3, #1
 650 0066 1A46     		mov	r2, r3
 651 0068 FF21     		movs	r1, #255
 652 006a 0020     		movs	r0, #0
 653 006c FFF7FEFF 		bl	send_response
 654              	.LVL69:
 211:controller/utils/comms.c ****         break;
 655              		.loc 1 211 9 view .LVU141
 656 0070 82E0     		b	.L38
 657              	.LVL70:
 658              	.L52:
 212:controller/utils/comms.c **** 
 659              		.loc 1 212 9 view .LVU142
 216:controller/utils/comms.c **** #endif
 660              		.loc 1 216 9 view .LVU143
 661 0072 0123     		movs	r3, #1
 662 0074 0322     		movs	r2, #3
 663 0076 4149     		ldr	r1, .L58
 664 0078 0020     		movs	r0, #0
 665 007a FFF7FEFF 		bl	send_response
 666              	.LVL71:
 218:controller/utils/comms.c ****         break;
 667              		.loc 1 218 9 view .LVU144
 668 007e 7BE0     		b	.L38
 669              	.LVL72:
 670              	.L51:
 219:controller/utils/comms.c **** 
 671              		.loc 1 219 9 view .LVU145
 222:controller/utils/comms.c ****         return;
 672              		.loc 1 222 9 view .LVU146
 673 0080 0123     		movs	r3, #1
 674 0082 1A46     		mov	r2, r3
 675 0084 0021     		movs	r1, #0
 676 0086 0846     		mov	r0, r1
 677 0088 FFF7FEFF 		bl	send_response
 678              	.LVL73:
 223:controller/utils/comms.c ****         break;
 679              		.loc 1 223 9 view .LVU147
 680 008c 74E0     		b	.L38
 681              	.LVL74:
 682              	.L49:
 224:controller/utils/comms.c **** 
 683              		.loc 1 224 9 view .LVU148
 227:controller/utils/comms.c ****         return;
 684              		.loc 1 227 9 view .LVU149
 685 008e 0123     		movs	r3, #1
 686 0090 1322     		movs	r2, #19
 687 0092 3B49     		ldr	r1, .L58+4
 688 0094 0020     		movs	r0, #0
 689 0096 FFF7FEFF 		bl	send_response
 690              	.LVL75:
 228:controller/utils/comms.c ****         break;
ARM GAS  C:\Users\alireza\AppData\Local\Temp\ccjouU0f.s 			page 21


 691              		.loc 1 228 9 view .LVU150
 692 009a 6DE0     		b	.L38
 693              	.LVL76:
 694              	.L48:
 229:controller/utils/comms.c **** 
 695              		.loc 1 229 9 view .LVU151
 232:controller/utils/comms.c ****         return;
 696              		.loc 1 232 9 view .LVU152
 697 009c 0123     		movs	r3, #1
 698 009e 1422     		movs	r2, #20
 699 00a0 3749     		ldr	r1, .L58+4
 700 00a2 0020     		movs	r0, #0
 701 00a4 FFF7FEFF 		bl	send_response
 702              	.LVL77:
 233:controller/utils/comms.c ****         break;
 703              		.loc 1 233 9 view .LVU153
 704 00a8 66E0     		b	.L38
 705              	.LVL78:
 706              	.L46:
 234:controller/utils/comms.c ****     case TS_SERIAL_INFO_COMMAND:
 707              		.loc 1 234 9 view .LVU154
 236:controller/utils/comms.c ****         response[0] = 2; // serial version
 708              		.loc 1 236 9 view .LVU155
 237:controller/utils/comms.c ****         *(uint16_t *)&response[1] = swap_endian_uint16(TS_TABLE_BLOCKING_FACTOR);
 709              		.loc 1 237 9 view .LVU156
 237:controller/utils/comms.c ****         *(uint16_t *)&response[1] = swap_endian_uint16(TS_TABLE_BLOCKING_FACTOR);
 710              		.loc 1 237 21 is_stmt 0 view .LVU157
 711 00aa 0223     		movs	r3, #2
 712 00ac 8DF80030 		strb	r3, [sp]
 713              	.LVL79:
 238:controller/utils/comms.c ****         *(uint16_t *)&response[3] = swap_endian_uint16(TS_BLOCKING_FACTOR);
 714              		.loc 1 238 9 is_stmt 1 view .LVU158
 238:controller/utils/comms.c ****         *(uint16_t *)&response[3] = swap_endian_uint16(TS_BLOCKING_FACTOR);
 715              		.loc 1 238 35 is_stmt 0 discriminator 1 view .LVU159
 716 00b0 0423     		movs	r3, #4
 717 00b2 ADF80130 		strh	r3, [sp, #1]	@ unaligned
 239:controller/utils/comms.c ****         send_response(TS_RESPONSE_OK, (uint8_t *)response, sizeof(response), TS_CRC);
 718              		.loc 1 239 9 is_stmt 1 view .LVU160
 239:controller/utils/comms.c ****         send_response(TS_RESPONSE_OK, (uint8_t *)response, sizeof(response), TS_CRC);
 719              		.loc 1 239 35 is_stmt 0 discriminator 1 view .LVU161
 720 00b6 ADF80330 		strh	r3, [sp, #3]	@ unaligned
 240:controller/utils/comms.c ****         return;
 721              		.loc 1 240 9 is_stmt 1 view .LVU162
 722 00ba 0123     		movs	r3, #1
 723 00bc 0522     		movs	r2, #5
 724 00be 6946     		mov	r1, sp
 725 00c0 0020     		movs	r0, #0
 726 00c2 FFF7FEFF 		bl	send_response
 727              	.LVL80:
 241:controller/utils/comms.c ****         break;
 728              		.loc 1 241 9 view .LVU163
 729 00c6 57E0     		b	.L38
 730              	.LVL81:
 731              	.L50:
 242:controller/utils/comms.c **** 
 732              		.loc 1 242 9 view .LVU164
 245:controller/utils/comms.c ****         return;
ARM GAS  C:\Users\alireza\AppData\Local\Temp\ccjouU0f.s 			page 22


 733              		.loc 1 245 9 view .LVU165
 734 00c8 0123     		movs	r3, #1
 735 00ca 5422     		movs	r2, #84
 736 00cc 2D49     		ldr	r1, .L58+8
 737 00ce 0020     		movs	r0, #0
 738 00d0 FFF7FEFF 		bl	send_response
 739              	.LVL82:
 246:controller/utils/comms.c ****         break;
 740              		.loc 1 246 9 view .LVU166
 741 00d4 50E0     		b	.L38
 742              	.LVL83:
 743              	.L44:
 247:controller/utils/comms.c ****     case TS_READ_COMMAND:
 744              		.loc 1 247 9 view .LVU167
 249:controller/utils/comms.c ****         uint16_t offset = *(uint16_t *)&request[3];
 745              		.loc 1 249 9 view .LVU168
 250:controller/utils/comms.c ****         uint16_t size = *(uint16_t *)&request[5];
 746              		.loc 1 250 9 view .LVU169
 251:controller/utils/comms.c ****         handle_page_read_command(page, offset, size);
 747              		.loc 1 251 9 view .LVU170
 252:controller/utils/comms.c ****         return;
 748              		.loc 1 252 9 view .LVU171
 749 00d6 B5F80520 		ldrh	r2, [r5, #5]
 750 00da B5F80310 		ldrh	r1, [r5, #3]
 751 00de 0020     		movs	r0, #0
 752 00e0 FFF7FEFF 		bl	handle_page_read_command
 753              	.LVL84:
 253:controller/utils/comms.c ****         break;
 754              		.loc 1 253 9 view .LVU172
 755 00e4 48E0     		b	.L38
 756              	.LVL85:
 757              	.L45:
 254:controller/utils/comms.c ****     case TS_CRC_CHECK_COMMAND:
 758              		.loc 1 254 9 view .LVU173
 256:controller/utils/comms.c ****         page_crc = swap_endian_uint32(page_crc);
 759              		.loc 1 256 9 view .LVU174
 256:controller/utils/comms.c ****         page_crc = swap_endian_uint32(page_crc);
 760              		.loc 1 256 29 is_stmt 0 view .LVU175
 761 00e6 4FF49652 		mov	r2, #4800
 762 00ea 2749     		ldr	r1, .L58+12
 763 00ec 0020     		movs	r0, #0
 764 00ee FFF7FEFF 		bl	crc32_inc
 765              	.LVL86:
 256:controller/utils/comms.c ****         page_crc = swap_endian_uint32(page_crc);
 766              		.loc 1 256 18 discriminator 1 view .LVU176
 767 00f2 0090     		str	r0, [sp]
 257:controller/utils/comms.c ****         send_response(TS_RESPONSE_OK, (uint8_t *)&page_crc, sizeof(page_crc), TS_CRC);
 768              		.loc 1 257 9 is_stmt 1 view .LVU177
 769              	.LVL87:
 770              	.LBB24:
 771              	.LBI24:
  90:controller/utils/utils.h **** {
 772              		.loc 2 90 17 view .LVU178
 773              	.LBB25:
  92:controller/utils/utils.h ****             ((x >> 8) & 0x0000ff00) | ((x << 24) & 0xff000000));
 774              		.loc 2 92 5 view .LVU179
  92:controller/utils/utils.h ****             ((x >> 8) & 0x0000ff00) | ((x << 24) & 0xff000000));
ARM GAS  C:\Users\alireza\AppData\Local\Temp\ccjouU0f.s 			page 23


 775              		.loc 2 92 44 is_stmt 0 view .LVU180
 776 00f4 0302     		lsls	r3, r0, #8
  92:controller/utils/utils.h ****             ((x >> 8) & 0x0000ff00) | ((x << 24) & 0xff000000));
 777              		.loc 2 92 50 view .LVU181
 778 00f6 03F47F03 		and	r3, r3, #16711680
  92:controller/utils/utils.h ****             ((x >> 8) & 0x0000ff00) | ((x << 24) & 0xff000000));
 779              		.loc 2 92 38 view .LVU182
 780 00fa 43EA1063 		orr	r3, r3, r0, lsr #24
 781              		.loc 2 93 17 view .LVU183
 782 00fe 020A     		lsrs	r2, r0, #8
 783              		.loc 2 93 23 view .LVU184
 784 0100 02F47F42 		and	r2, r2, #65280
  92:controller/utils/utils.h ****             ((x >> 8) & 0x0000ff00) | ((x << 24) & 0xff000000));
 785              		.loc 2 92 64 view .LVU185
 786 0104 1343     		orrs	r3, r3, r2
 787              		.loc 2 93 37 view .LVU186
 788 0106 43EA0063 		orr	r3, r3, r0, lsl #24
 789              	.LVL88:
 790              		.loc 2 93 37 view .LVU187
 791              	.LBE25:
 792              	.LBE24:
 257:controller/utils/comms.c ****         send_response(TS_RESPONSE_OK, (uint8_t *)&page_crc, sizeof(page_crc), TS_CRC);
 793              		.loc 1 257 18 discriminator 1 view .LVU188
 794 010a 0093     		str	r3, [sp]
 258:controller/utils/comms.c ****         return;
 795              		.loc 1 258 9 is_stmt 1 view .LVU189
 796 010c 0123     		movs	r3, #1
 797 010e 0422     		movs	r2, #4
 798 0110 6946     		mov	r1, sp
 799 0112 0020     		movs	r0, #0
 800 0114 FFF7FEFF 		bl	send_response
 801              	.LVL89:
 259:controller/utils/comms.c ****         break;
 802              		.loc 1 259 9 view .LVU190
 803 0118 2EE0     		b	.L38
 804              	.LVL90:
 805              	.L47:
 260:controller/utils/comms.c **** 
 806              		.loc 1 260 9 view .LVU191
 807              	.LBB26:
 264:controller/utils/comms.c ****         uint16_t offset = *(uint16_t *)&request[3];
 808              		.loc 1 264 9 view .LVU192
 265:controller/utils/comms.c ****         uint16_t size = *(uint16_t *)&request[5];
 809              		.loc 1 265 9 view .LVU193
 265:controller/utils/comms.c ****         uint16_t size = *(uint16_t *)&request[5];
 810              		.loc 1 265 18 is_stmt 0 view .LVU194
 811 011a B5F80330 		ldrh	r3, [r5, #3]
 812              	.LVL91:
 266:controller/utils/comms.c ****         memcpy((uint8_t *)&config + offset, &request[7], size);
 813              		.loc 1 266 9 is_stmt 1 view .LVU195
 267:controller/utils/comms.c ****         send_response(TS_RESPONSE_OK, NULL, 0, TS_CRC);
 814              		.loc 1 267 9 view .LVU196
 815 011e B5F80520 		ldrh	r2, [r5, #5]
 816 0122 E91D     		adds	r1, r5, #7
 817 0124 1848     		ldr	r0, .L58+12
 818 0126 1844     		add	r0, r0, r3
 819 0128 FFF7FEFF 		bl	memcpy
ARM GAS  C:\Users\alireza\AppData\Local\Temp\ccjouU0f.s 			page 24


 820              	.LVL92:
 268:controller/utils/comms.c ****         return;
 821              		.loc 1 268 9 view .LVU197
 822 012c 0123     		movs	r3, #1
 823 012e 0022     		movs	r2, #0
 824 0130 1146     		mov	r1, r2
 825 0132 1046     		mov	r0, r2
 826 0134 FFF7FEFF 		bl	send_response
 827              	.LVL93:
 269:controller/utils/comms.c ****         break;
 828              		.loc 1 269 9 view .LVU198
 829 0138 1EE0     		b	.L38
 830              	.LVL94:
 831              	.L42:
 270:controller/utils/comms.c ****     }
 832              		.loc 1 270 9 view .LVU199
 833              	.LBE26:
 834              	.LBB27:
 274:controller/utils/comms.c ****         uint16_t offset = *(uint16_t *)&request[3];
 835              		.loc 1 274 9 view .LVU200
 275:controller/utils/comms.c ****         uint16_t size = *(uint16_t *)&request[5];
 836              		.loc 1 275 9 view .LVU201
 275:controller/utils/comms.c ****         uint16_t size = *(uint16_t *)&request[5];
 837              		.loc 1 275 18 is_stmt 0 view .LVU202
 838 013a B5F80330 		ldrh	r3, [r5, #3]
 839              	.LVL95:
 276:controller/utils/comms.c ****         memcpy((uint8_t *)&config + offset, &request[7], size);
 840              		.loc 1 276 9 is_stmt 1 view .LVU203
 277:controller/utils/comms.c ****         send_response(TS_RESPONSE_OK, NULL, 0, TS_CRC);
 841              		.loc 1 277 9 view .LVU204
 842 013e B5F80520 		ldrh	r2, [r5, #5]
 843 0142 E91D     		adds	r1, r5, #7
 844 0144 1048     		ldr	r0, .L58+12
 845 0146 1844     		add	r0, r0, r3
 846 0148 FFF7FEFF 		bl	memcpy
 847              	.LVL96:
 278:controller/utils/comms.c ****         return;
 848              		.loc 1 278 9 view .LVU205
 849 014c 0123     		movs	r3, #1
 850 014e 0022     		movs	r2, #0
 851 0150 1146     		mov	r1, r2
 852 0152 1046     		mov	r0, r2
 853 0154 FFF7FEFF 		bl	send_response
 854              	.LVL97:
 279:controller/utils/comms.c ****         break;
 855              		.loc 1 279 9 view .LVU206
 856 0158 0EE0     		b	.L38
 857              	.LVL98:
 858              	.L54:
 280:controller/utils/comms.c ****     }
 859              		.loc 1 280 9 view .LVU207
 860              	.LBE27:
 285:controller/utils/comms.c ****         {
 861              		.loc 1 285 9 view .LVU208
 285:controller/utils/comms.c ****         {
 862              		.loc 1 285 13 is_stmt 0 view .LVU209
 863 015a FFF7FEFF 		bl	controller_save_configuration
ARM GAS  C:\Users\alireza\AppData\Local\Temp\ccjouU0f.s 			page 25


 864              	.LVL99:
 285:controller/utils/comms.c ****         {
 865              		.loc 1 285 12 discriminator 1 view .LVU210
 866 015e 58B1     		cbz	r0, .L38
 287:controller/utils/comms.c ****         }
 867              		.loc 1 287 13 is_stmt 1 view .LVU211
 868 0160 0123     		movs	r3, #1
 869 0162 0022     		movs	r2, #0
 870 0164 1146     		mov	r1, r2
 871 0166 0420     		movs	r0, #4
 872 0168 FFF7FEFF 		bl	send_response
 873              	.LVL100:
 874 016c 04E0     		b	.L38
 875              	.LVL101:
 876              	.L41:
 290:controller/utils/comms.c ****     default:
 877              		.loc 1 290 9 view .LVU212
 292:controller/utils/comms.c ****     }
 878              		.loc 1 292 9 view .LVU213
 879              	.LBE23:
 294:controller/utils/comms.c **** }
 880              		.loc 1 294 5 view .LVU214
 881 016e 4FF40051 		mov	r1, #8192
 882 0172 0648     		ldr	r0, .L58+16
 883 0174 FFF7FEFF 		bl	HAL_GPIO_TogglePin
 884              	.LVL102:
 885              	.L38:
 295:controller/utils/comms.c **** 
 886              		.loc 1 295 1 is_stmt 0 view .LVU215
 887 0178 03B0     		add	sp, sp, #12
 888              		.cfi_def_cfa_offset 12
 889              		@ sp needed
 890 017a 30BD     		pop	{r4, r5, pc}
 891              	.LVL103:
 892              	.L59:
 295:controller/utils/comms.c **** 
 893              		.loc 1 295 1 view .LVU216
 894              		.align	2
 895              	.L58:
 896 017c 00000000 		.word	.LC1
 897 0180 04000000 		.word	.LC2
 898 0184 00000000 		.word	runtime
 899 0188 00000000 		.word	config
 900 018c 00080240 		.word	1073874944
 901              		.cfi_endproc
 902              	.LFE237:
 904              		.section	.text.comms_task,"ax",%progbits
 905              		.align	1
 906              		.global	comms_task
 907              		.syntax unified
 908              		.thumb
 909              		.thumb_func
 911              	comms_task:
 912              	.LFB235:
 136:controller/utils/comms.c ****     usb_packet_ptr_t packet;
 913              		.loc 1 136 1 is_stmt 1 view -0
 914              		.cfi_startproc
ARM GAS  C:\Users\alireza\AppData\Local\Temp\ccjouU0f.s 			page 26


 915              		@ Volatile: function does not return.
 916              		@ args = 0, pretend = 0, frame = 8
 917              		@ frame_needed = 0, uses_anonymous_args = 0
 918              	.LVL104:
 136:controller/utils/comms.c ****     usb_packet_ptr_t packet;
 919              		.loc 1 136 1 is_stmt 0 view .LVU218
 920 0000 00B5     		push	{lr}
 921              		.cfi_def_cfa_offset 4
 922              		.cfi_offset 14, -4
 923 0002 83B0     		sub	sp, sp, #12
 924              		.cfi_def_cfa_offset 16
 925              	.LVL105:
 926              	.L61:
 137:controller/utils/comms.c ****     for (;;)
 927              		.loc 1 137 5 is_stmt 1 view .LVU219
 138:controller/utils/comms.c ****     {
 928              		.loc 1 138 5 view .LVU220
 140:controller/utils/comms.c ****         {
 929              		.loc 1 140 9 view .LVU221
 140:controller/utils/comms.c ****         {
 930              		.loc 1 140 13 is_stmt 0 view .LVU222
 931 0004 4FF0FF33 		mov	r3, #-1
 932 0008 0022     		movs	r2, #0
 933 000a 6946     		mov	r1, sp
 934 000c 0548     		ldr	r0, .L64
 935 000e 0068     		ldr	r0, [r0]
 936 0010 FFF7FEFF 		bl	osMessageQueueGet
 937              	.LVL106:
 140:controller/utils/comms.c ****         {
 938              		.loc 1 140 12 discriminator 1 view .LVU223
 939 0014 0028     		cmp	r0, #0
 940 0016 F5D1     		bne	.L61
 142:controller/utils/comms.c ****         }
 941              		.loc 1 142 13 is_stmt 1 view .LVU224
 942 0018 BDF80410 		ldrh	r1, [sp, #4]
 943 001c 0098     		ldr	r0, [sp]
 944 001e FFF7FEFF 		bl	process_command
 945              	.LVL107:
 946 0022 EFE7     		b	.L61
 947              	.L65:
 948              		.align	2
 949              	.L64:
 950 0024 00000000 		.word	usb_rx_queue
 951              		.cfi_endproc
 952              	.LFE235:
 954              		.section	.text.handle_page_write_command,"ax",%progbits
 955              		.align	1
 956              		.global	handle_page_write_command
 957              		.syntax unified
 958              		.thumb
 959              		.thumb_func
 961              	handle_page_write_command:
 962              	.LVL108:
 963              	.LFB239:
 310:controller/utils/comms.c **** 
 311:controller/utils/comms.c **** void handle_page_write_command(uint16_t page, uint16_t offset, uint16_t count)
 312:controller/utils/comms.c **** {
ARM GAS  C:\Users\alireza\AppData\Local\Temp\ccjouU0f.s 			page 27


 964              		.loc 1 312 1 view -0
 965              		.cfi_startproc
 966              		@ args = 0, pretend = 0, frame = 0
 967              		@ frame_needed = 0, uses_anonymous_args = 0
 968              		@ link register save eliminated.
 313:controller/utils/comms.c **** 	if (page > 1)
 969              		.loc 1 313 2 view .LVU226
 314:controller/utils/comms.c **** 	{
 315:controller/utils/comms.c **** 		return;
 316:controller/utils/comms.c **** 	}
 317:controller/utils/comms.c **** 	if ((offset + count) > TS_PAGE_SIZE)
 970              		.loc 1 317 2 view .LVU227
 318:controller/utils/comms.c **** 	{
 319:controller/utils/comms.c **** 		return;
 971              		.loc 1 319 3 view .LVU228
 320:controller/utils/comms.c **** 	}
 321:controller/utils/comms.c **** 	
 322:controller/utils/comms.c **** }
 972              		.loc 1 322 1 is_stmt 0 view .LVU229
 973 0000 7047     		bx	lr
 974              		.cfi_endproc
 975              	.LFE239:
 977              		.global	rx_buffer
 978              		.section	.bss.rx_buffer,"aw",%nobits
 979              		.align	2
 982              	rx_buffer:
 983 0000 00000000 		.space	1054
 983      00000000 
 983      00000000 
 983      00000000 
 983      00000000 
 984              		.global	tx_buffer
 985              		.section	.bss.tx_buffer,"aw",%nobits
 986              		.align	2
 989              	tx_buffer:
 990 0000 00000000 		.space	1054
 990      00000000 
 990      00000000 
 990      00000000 
 990      00000000 
 991              		.global	rx_packet
 992              		.section	.bss.rx_packet,"aw",%nobits
 993              		.align	2
 996              	rx_packet:
 997 0000 00000000 		.space	66
 997      00000000 
 997      00000000 
 997      00000000 
 997      00000000 
 998              		.global	usb_rx_queue
 999              		.section	.bss.usb_rx_queue,"aw",%nobits
 1000              		.align	2
 1003              	usb_rx_queue:
 1004 0000 00000000 		.space	4
 1005              		.text
 1006              	.Letext0:
 1007              		.file 3 "C:/Users/alireza/AppData/Roaming/Code/User/globalStorage/bmd.stm32-for-vscode/@xpack-dev-
ARM GAS  C:\Users\alireza\AppData\Local\Temp\ccjouU0f.s 			page 28


 1008              		.file 4 "C:/Users/alireza/AppData/Roaming/Code/User/globalStorage/bmd.stm32-for-vscode/@xpack-dev-
 1009              		.file 5 "Drivers/CMSIS/Device/ST/STM32F4xx/Include/stm32f401xc.h"
 1010              		.file 6 "C:/Users/alireza/AppData/Roaming/Code/User/globalStorage/bmd.stm32-for-vscode/@xpack-dev-
 1011              		.file 7 "Drivers/STM32F4xx_HAL_Driver/Inc/stm32f4xx_hal_gpio.h"
 1012              		.file 8 "Middlewares/Third_Party/FreeRTOS/Source/CMSIS_RTOS_V2/cmsis_os2.h"
 1013              		.file 9 "controller/tables.h"
 1014              		.file 10 "controller/config_and_runtime.h"
 1015              		.file 11 "controller/utils/comms.h"
 1016              		.file 12 "controller/controller.h"
 1017              		.file 13 "USB_DEVICE/App/usbd_cdc_if.h"
 1018              		.file 14 "C:/Users/alireza/AppData/Roaming/Code/User/globalStorage/bmd.stm32-for-vscode/@xpack-dev
 1019              		.file 15 "<built-in>"
ARM GAS  C:\Users\alireza\AppData\Local\Temp\ccjouU0f.s 			page 29


DEFINED SYMBOLS
                            *ABS*:00000000 comms.c
C:\Users\alireza\AppData\Local\Temp\ccjouU0f.s:21     .text.transmit_crc_packet:00000000 $t
C:\Users\alireza\AppData\Local\Temp\ccjouU0f.s:27     .text.transmit_crc_packet:00000000 transmit_crc_packet
C:\Users\alireza\AppData\Local\Temp\ccjouU0f.s:164    .text.transmit_crc_packet:00000078 $d
C:\Users\alireza\AppData\Local\Temp\ccjouU0f.s:989    .bss.tx_buffer:00000000 tx_buffer
C:\Users\alireza\AppData\Local\Temp\ccjouU0f.s:169    .text.send_response:00000000 $t
C:\Users\alireza\AppData\Local\Temp\ccjouU0f.s:175    .text.send_response:00000000 send_response
C:\Users\alireza\AppData\Local\Temp\ccjouU0f.s:232    .text.send_response:00000030 $d
C:\Users\alireza\AppData\Local\Temp\ccjouU0f.s:238    .rodata.comms_init.str1.4:00000000 $d
C:\Users\alireza\AppData\Local\Temp\ccjouU0f.s:242    .text.comms_init:00000000 $t
C:\Users\alireza\AppData\Local\Temp\ccjouU0f.s:248    .text.comms_init:00000000 comms_init
C:\Users\alireza\AppData\Local\Temp\ccjouU0f.s:298    .text.comms_init:0000003c $d
C:\Users\alireza\AppData\Local\Temp\ccjouU0f.s:1003   .bss.usb_rx_queue:00000000 usb_rx_queue
C:\Users\alireza\AppData\Local\Temp\ccjouU0f.s:911    .text.comms_task:00000000 comms_task
C:\Users\alireza\AppData\Local\Temp\ccjouU0f.s:305    .rodata.process_plain_command.str1.4:00000000 $d
C:\Users\alireza\AppData\Local\Temp\ccjouU0f.s:312    .text.process_plain_command:00000000 $t
C:\Users\alireza\AppData\Local\Temp\ccjouU0f.s:318    .text.process_plain_command:00000000 process_plain_command
C:\Users\alireza\AppData\Local\Temp\ccjouU0f.s:340    .text.process_plain_command:0000000e $d
C:\Users\alireza\AppData\Local\Temp\ccjouU0f.s:457    .text.process_plain_command:00000074 $d
C:\Users\alireza\AppData\Local\Temp\ccjouU0f.s:463    .text.handle_page_read_command:00000000 $t
C:\Users\alireza\AppData\Local\Temp\ccjouU0f.s:469    .text.handle_page_read_command:00000000 handle_page_read_command
C:\Users\alireza\AppData\Local\Temp\ccjouU0f.s:520    .text.handle_page_read_command:00000020 $d
C:\Users\alireza\AppData\Local\Temp\ccjouU0f.s:525    .text.process_command:00000000 $t
C:\Users\alireza\AppData\Local\Temp\ccjouU0f.s:531    .text.process_command:00000000 process_command
C:\Users\alireza\AppData\Local\Temp\ccjouU0f.s:578    .text.process_command:00000024 $d
C:\Users\alireza\AppData\Local\Temp\ccjouU0f.s:633    .text.process_command:0000005a $t
C:\Users\alireza\AppData\Local\Temp\ccjouU0f.s:896    .text.process_command:0000017c $d
C:\Users\alireza\AppData\Local\Temp\ccjouU0f.s:905    .text.comms_task:00000000 $t
C:\Users\alireza\AppData\Local\Temp\ccjouU0f.s:950    .text.comms_task:00000024 $d
C:\Users\alireza\AppData\Local\Temp\ccjouU0f.s:955    .text.handle_page_write_command:00000000 $t
C:\Users\alireza\AppData\Local\Temp\ccjouU0f.s:961    .text.handle_page_write_command:00000000 handle_page_write_command
C:\Users\alireza\AppData\Local\Temp\ccjouU0f.s:982    .bss.rx_buffer:00000000 rx_buffer
C:\Users\alireza\AppData\Local\Temp\ccjouU0f.s:979    .bss.rx_buffer:00000000 $d
C:\Users\alireza\AppData\Local\Temp\ccjouU0f.s:986    .bss.tx_buffer:00000000 $d
C:\Users\alireza\AppData\Local\Temp\ccjouU0f.s:996    .bss.rx_packet:00000000 rx_packet
C:\Users\alireza\AppData\Local\Temp\ccjouU0f.s:993    .bss.rx_packet:00000000 $d
C:\Users\alireza\AppData\Local\Temp\ccjouU0f.s:1000   .bss.usb_rx_queue:00000000 $d
C:\Users\alireza\AppData\Local\Temp\ccjouU0f.s:357    .text.process_plain_command:0000001f $d
C:\Users\alireza\AppData\Local\Temp\ccjouU0f.s:357    .text.process_plain_command:00000020 $t

UNDEFINED SYMBOLS
crc32_inc
memcpy
CDC_Transmit_FS
HAL_GPIO_WritePin
osMessageQueueNew
memset
osThreadNew
config
controller_save_configuration
HAL_GPIO_TogglePin
runtime
osMessageQueueGet
