ARM GAS  C:\Users\alireza\AppData\Local\Temp\ccwrs5HQ.s 			page 1


   1              		.cpu cortex-m4
   2              		.arch armv7e-m
   3              		.fpu fpv4-sp-d16
   4              		.eabi_attribute 27, 1
   5              		.eabi_attribute 28, 1
   6              		.eabi_attribute 20, 1
   7              		.eabi_attribute 21, 1
   8              		.eabi_attribute 23, 3
   9              		.eabi_attribute 24, 1
  10              		.eabi_attribute 25, 1
  11              		.eabi_attribute 26, 1
  12              		.eabi_attribute 30, 1
  13              		.eabi_attribute 34, 1
  14              		.eabi_attribute 18, 4
  15              		.file	"controller.c"
  16              		.text
  17              	.Ltext0:
  18              		.cfi_sections	.debug_frame
  19              		.file 1 "controller/controller.c"
  20              		.section	.text.controller_init,"ax",%progbits
  21              		.align	1
  22              		.global	controller_init
  23              		.syntax unified
  24              		.thumb
  25              		.thumb_func
  27              	controller_init:
  28              	.LFB228:
   1:controller/controller.c **** #include "controller.h"
   2:controller/controller.c **** 
   3:controller/controller.c **** configuration_s configuration = {0};
   4:controller/controller.c **** engine_s engine = {0};
   5:controller/controller.c **** 
   6:controller/controller.c **** static electronic_throttle_s etb1 = {0};
   7:controller/controller.c **** 
   8:controller/controller.c **** void controller_init()
   9:controller/controller.c **** {
  29              		.loc 1 9 1 view -0
  30              		.cfi_startproc
  31              		@ args = 0, pretend = 0, frame = 32
  32              		@ frame_needed = 0, uses_anonymous_args = 0
  33 0000 2DE9F041 		push	{r4, r5, r6, r7, r8, lr}
  34              		.cfi_def_cfa_offset 24
  35              		.cfi_offset 4, -24
  36              		.cfi_offset 5, -20
  37              		.cfi_offset 6, -16
  38              		.cfi_offset 7, -12
  39              		.cfi_offset 8, -8
  40              		.cfi_offset 14, -4
  41 0004 8AB0     		sub	sp, sp, #40
  42              		.cfi_def_cfa_offset 64
  10:controller/controller.c ****     engine.total_revolutions = 0;
  43              		.loc 1 10 5 view .LVU1
  44              		.loc 1 10 30 is_stmt 0 view .LVU2
  45 0006 294E     		ldr	r6, .L3
  46 0008 0027     		movs	r7, #0
  47 000a 3760     		str	r7, [r6]
  11:controller/controller.c ****     engine.crankshaft_angle = 0;
ARM GAS  C:\Users\alireza\AppData\Local\Temp\ccwrs5HQ.s 			page 2


  48              		.loc 1 11 5 is_stmt 1 view .LVU3
  49              		.loc 1 11 29 is_stmt 0 view .LVU4
  50 000c 0023     		movs	r3, #0
  51 000e 7360     		str	r3, [r6, #4]	@ float
  12:controller/controller.c ****     engine.camshaft_angle = 0;
  52              		.loc 1 12 5 is_stmt 1 view .LVU5
  53              		.loc 1 12 27 is_stmt 0 view .LVU6
  54 0010 B360     		str	r3, [r6, #8]	@ float
  13:controller/controller.c ****     engine.rpm = 0;
  55              		.loc 1 13 5 is_stmt 1 view .LVU7
  56              		.loc 1 13 16 is_stmt 0 view .LVU8
  57 0012 F360     		str	r3, [r6, #12]	@ float
  14:controller/controller.c ****     engine.cylinder_count = 4;
  58              		.loc 1 14 5 is_stmt 1 view .LVU9
  59              		.loc 1 14 27 is_stmt 0 view .LVU10
  60 0014 4FF00408 		mov	r8, #4
  61 0018 86F81080 		strb	r8, [r6, #16]
  15:controller/controller.c ****     engine.spinning_state = SS_STOPPED;
  62              		.loc 1 15 5 is_stmt 1 view .LVU11
  63              		.loc 1 15 27 is_stmt 0 view .LVU12
  64 001c 7774     		strb	r7, [r6, #17]
  16:controller/controller.c ****     engine.firing_interval = 180.0f;
  65              		.loc 1 16 5 is_stmt 1 view .LVU13
  66              		.loc 1 16 28 is_stmt 0 view .LVU14
  67 001e 244B     		ldr	r3, .L3+4
  68 0020 7361     		str	r3, [r6, #20]	@ float
  17:controller/controller.c ****     // engine.trigger = .....;
  18:controller/controller.c **** 
  19:controller/controller.c ****     configuration.ignition_dwell = (float_time_ms_t)3;
  69              		.loc 1 19 5 is_stmt 1 view .LVU15
  70              		.loc 1 19 34 is_stmt 0 view .LVU16
  71 0022 244D     		ldr	r5, .L3+8
  72 0024 244B     		ldr	r3, .L3+12
  73 0026 EB61     		str	r3, [r5, #28]	@ float
  20:controller/controller.c ****     configuration.ignition_mode = IM_WASTED_SPARK;
  74              		.loc 1 20 5 is_stmt 1 view .LVU17
  75              		.loc 1 20 33 is_stmt 0 view .LVU18
  76 0028 0323     		movs	r3, #3
  77 002a 2B76     		strb	r3, [r5, #24]
  21:controller/controller.c **** 
  22:controller/controller.c ****     configuration.trigger.filtering = TF_FILTERING_NONE;
  78              		.loc 1 22 5 is_stmt 1 view .LVU19
  79              		.loc 1 22 37 is_stmt 0 view .LVU20
  80 002c AF71     		strb	r7, [r5, #6]
  23:controller/controller.c ****     configuration.trigger.full_teeth = 60;
  81              		.loc 1 23 5 is_stmt 1 view .LVU21
  82              		.loc 1 23 38 is_stmt 0 view .LVU22
  83 002e 3C23     		movs	r3, #60
  84 0030 EB71     		strb	r3, [r5, #7]
  24:controller/controller.c ****     configuration.trigger.missing_teeth = 2;
  85              		.loc 1 24 5 is_stmt 1 view .LVU23
  86              		.loc 1 24 41 is_stmt 0 view .LVU24
  87 0032 0223     		movs	r3, #2
  88 0034 2B72     		strb	r3, [r5, #8]
  25:controller/controller.c ****     configuration.cranking_rpm_threshold = 400;
  89              		.loc 1 25 5 is_stmt 1 view .LVU25
  90              		.loc 1 25 42 is_stmt 0 view .LVU26
ARM GAS  C:\Users\alireza\AppData\Local\Temp\ccwrs5HQ.s 			page 3


  91 0036 214B     		ldr	r3, .L3+16
  92 0038 EB60     		str	r3, [r5, #12]	@ float
  26:controller/controller.c ****     
  27:controller/controller.c ****     ignition_output_conf_s ignition_output_conf =
  93              		.loc 1 27 5 is_stmt 1 view .LVU27
  94              		.loc 1 27 28 is_stmt 0 view .LVU28
  95 003a 0DF1080C 		add	ip, sp, #8
  96 003e 204C     		ldr	r4, .L3+20
  97 0040 0FCC     		ldmia	r4!, {r0, r1, r2, r3}
  98 0042 ACE80F00 		stmia	ip!, {r0, r1, r2, r3}
  99 0046 94E80F00 		ldm	r4, {r0, r1, r2, r3}
 100 004a 8CE80F00 		stm	ip, {r0, r1, r2, r3}
  28:controller/controller.c ****     {
  29:controller/controller.c ****         .output[0] = {.gpio = IGNITION_OUTPUT1_GPIO_Port, .pin = IGNITION_OUTPUT1_Pin},
  30:controller/controller.c ****         .output[1] = {.gpio = IGNITION_OUTPUT2_GPIO_Port, .pin = IGNITION_OUTPUT2_Pin},
  31:controller/controller.c ****         .output[2] = {.gpio = IGNITION_OUTPUT3_GPIO_Port, .pin = IGNITION_OUTPUT3_Pin},
  32:controller/controller.c ****         .output[3] = {.gpio = IGNITION_OUTPUT4_GPIO_Port, .pin = IGNITION_OUTPUT4_Pin}
  33:controller/controller.c ****     };
  34:controller/controller.c ****     configuration.governer_pid.Kp = 1;
 101              		.loc 1 34 5 is_stmt 1 view .LVU29
 102              		.loc 1 34 35 is_stmt 0 view .LVU30
 103 004e 4FF07E53 		mov	r3, #1065353216
 104 0052 EB67     		str	r3, [r5, #124]	@ float
  35:controller/controller.c ****     configuration.cranking_throttle = 10;
 105              		.loc 1 35 5 is_stmt 1 view .LVU31
 106              		.loc 1 35 37 is_stmt 0 view .LVU32
 107 0054 1B4B     		ldr	r3, .L3+24
 108 0056 6B61     		str	r3, [r5, #20]	@ float
  36:controller/controller.c ****     configuration.governer_target_rpm = 1000;
 109              		.loc 1 36 5 is_stmt 1 view .LVU33
 110              		.loc 1 36 39 is_stmt 0 view .LVU34
 111 0058 1B4B     		ldr	r3, .L3+28
 112 005a EB65     		str	r3, [r5, #92]	@ float
  37:controller/controller.c **** 
  38:controller/controller.c ****     controller_timing_start(&htim2);
 113              		.loc 1 38 5 is_stmt 1 view .LVU35
 114 005c 1B48     		ldr	r0, .L3+32
 115 005e FFF7FEFF 		bl	controller_timing_start
 116              	.LVL0:
  39:controller/controller.c ****     analog_inputs_init(&hadc1);
 117              		.loc 1 39 5 view .LVU36
 118 0062 1B48     		ldr	r0, .L3+36
 119 0064 FFF7FEFF 		bl	analog_inputs_init
 120              	.LVL1:
  40:controller/controller.c ****     trigger_init(&engine.trigger);
 121              		.loc 1 40 5 view .LVU37
 122 0068 06F11800 		add	r0, r6, #24
 123 006c FFF7FEFF 		bl	trigger_init
 124              	.LVL2:
  41:controller/controller.c ****     ignition_init(&ignition_output_conf);
 125              		.loc 1 41 5 view .LVU38
 126 0070 02A8     		add	r0, sp, #8
 127 0072 FFF7FEFF 		bl	ignition_init
 128              	.LVL3:
  42:controller/controller.c **** 
  43:controller/controller.c ****     // this has to eventually use the configuration 
  44:controller/controller.c ****     static pid_t etb1_pid = {.Kp = 10, .Ki = 0, .Kd = 0, .setpoint = 50};
ARM GAS  C:\Users\alireza\AppData\Local\Temp\ccwrs5HQ.s 			page 4


 129              		.loc 1 44 5 view .LVU39
  45:controller/controller.c ****     pid_init(&etb1_pid);
 130              		.loc 1 45 5 view .LVU40
 131 0076 174D     		ldr	r5, .L3+40
 132 0078 2846     		mov	r0, r5
 133 007a FFF7FEFF 		bl	pid_init
 134              	.LVL4:
  46:controller/controller.c ****     static sensor_tps_s etb1_tps = {.analog_channel = ANALOG_INPUT_ETB1_SENSE1, .closed_throttle_ad
 135              		.loc 1 46 5 view .LVU41
  47:controller/controller.c ****     static dc_motor_s etb1_motor = {0};
 136              		.loc 1 47 5 view .LVU42
  48:controller/controller.c ****     dc_motor_init(&etb1_motor, &htim1, TIM_CHANNEL_1, TIM_CHANNEL_2, 1000);
 137              		.loc 1 48 5 view .LVU43
 138 007e 164E     		ldr	r6, .L3+44
 139 0080 4FF47A73 		mov	r3, #1000
 140 0084 0093     		str	r3, [sp]
 141 0086 4346     		mov	r3, r8
 142 0088 3A46     		mov	r2, r7
 143 008a 1449     		ldr	r1, .L3+48
 144 008c 3046     		mov	r0, r6
 145 008e FFF7FEFF 		bl	dc_motor_init
 146              	.LVL5:
  49:controller/controller.c ****     electronic_throttle_init(&etb1, &etb1_pid, &etb1_tps, &etb1_motor);
 147              		.loc 1 49 5 view .LVU44
 148 0092 134C     		ldr	r4, .L3+52
 149 0094 3346     		mov	r3, r6
 150 0096 134A     		ldr	r2, .L3+56
 151 0098 2946     		mov	r1, r5
 152 009a 2046     		mov	r0, r4
 153 009c FFF7FEFF 		bl	electronic_throttle_init
 154              	.LVL6:
  50:controller/controller.c **** 
  51:controller/controller.c ****     governer_init(&etb1);
 155              		.loc 1 51 5 view .LVU45
 156 00a0 2046     		mov	r0, r4
 157 00a2 FFF7FEFF 		bl	governer_init
 158              	.LVL7:
  52:controller/controller.c **** 
  53:controller/controller.c ****     //HAL_FLASH_Unlock();
  54:controller/controller.c ****     //EE_Init();
  55:controller/controller.c **** }
 159              		.loc 1 55 1 is_stmt 0 view .LVU46
 160 00a6 0AB0     		add	sp, sp, #40
 161              		.cfi_def_cfa_offset 24
 162              		@ sp needed
 163 00a8 BDE8F081 		pop	{r4, r5, r6, r7, r8, pc}
 164              	.L4:
 165              		.align	2
 166              	.L3:
 167 00ac 00000000 		.word	engine
 168 00b0 00003443 		.word	1127481344
 169 00b4 00000000 		.word	configuration
 170 00b8 00004040 		.word	1077936128
 171 00bc 0000C843 		.word	1137180672
 172 00c0 00000000 		.word	.LANCHOR0
 173 00c4 00002041 		.word	1092616192
 174 00c8 00007A44 		.word	1148846080
ARM GAS  C:\Users\alireza\AppData\Local\Temp\ccwrs5HQ.s 			page 5


 175 00cc 00000000 		.word	htim2
 176 00d0 00000000 		.word	hadc1
 177 00d4 00000000 		.word	etb1_pid.2
 178 00d8 00000000 		.word	etb1_motor.1
 179 00dc 00000000 		.word	htim1
 180 00e0 00000000 		.word	etb1
 181 00e4 00000000 		.word	etb1_tps.0
 182              		.cfi_endproc
 183              	.LFE228:
 185              		.section	.rodata.controller_load_configuration.str1.4,"aMS",%progbits,1
 186              		.align	2
 187              	.LC1:
 188 0000 436F6E66 		.ascii	"Configuration load failed!\000"
 188      69677572 
 188      6174696F 
 188      6E206C6F 
 188      61642066 
 189              		.section	.text.controller_load_configuration,"ax",%progbits
 190              		.align	1
 191              		.global	controller_load_configuration
 192              		.syntax unified
 193              		.thumb
 194              		.thumb_func
 196              	controller_load_configuration:
 197              	.LFB229:
  56:controller/controller.c **** 
  57:controller/controller.c **** void controller_load_configuration()
  58:controller/controller.c **** {
 198              		.loc 1 58 1 is_stmt 1 view -0
 199              		.cfi_startproc
 200              		@ args = 0, pretend = 0, frame = 0
 201              		@ frame_needed = 0, uses_anonymous_args = 0
 202 0000 10B5     		push	{r4, lr}
 203              		.cfi_def_cfa_offset 8
 204              		.cfi_offset 4, -8
 205              		.cfi_offset 14, -4
  59:controller/controller.c ****     uint16_t status = HAL_OK;
 206              		.loc 1 59 5 view .LVU48
 207              	.LVL8:
  60:controller/controller.c ****     uint32_t read_size = sizeof(configuration) / sizeof(uint16_t);
 208              		.loc 1 60 5 view .LVU49
  61:controller/controller.c ****     uint16_t *starting_point = (uint16_t *) &configuration;
 209              		.loc 1 61 5 view .LVU50
  62:controller/controller.c ****     for (size_t i = 0; i < read_size; i++)
 210              		.loc 1 62 5 view .LVU51
 211              	.LBB2:
 212              		.loc 1 62 10 view .LVU52
 213              		.loc 1 62 17 is_stmt 0 view .LVU53
 214 0002 0024     		movs	r4, #0
 215              	.LVL9:
 216              	.L6:
 217              		.loc 1 62 26 is_stmt 1 discriminator 1 view .LVU54
 218 0004 4D2C     		cmp	r4, #77
 219 0006 0BD8     		bhi	.L5
  63:controller/controller.c ****     {
  64:controller/controller.c ****         status = EE_ReadVariable(i, starting_point + i);
 220              		.loc 1 64 9 view .LVU55
ARM GAS  C:\Users\alireza\AppData\Local\Temp\ccwrs5HQ.s 			page 6


 221              		.loc 1 64 18 is_stmt 0 view .LVU56
 222 0008 0649     		ldr	r1, .L12
 223 000a 01EB4401 		add	r1, r1, r4, lsl #1
 224 000e A0B2     		uxth	r0, r4
 225 0010 FFF7FEFF 		bl	EE_ReadVariable
 226              	.LVL10:
  65:controller/controller.c ****         if (status != HAL_OK)
 227              		.loc 1 65 9 is_stmt 1 view .LVU57
 228              		.loc 1 65 12 is_stmt 0 view .LVU58
 229 0014 08B9     		cbnz	r0, .L11
  62:controller/controller.c ****     for (size_t i = 0; i < read_size; i++)
 230              		.loc 1 62 40 is_stmt 1 discriminator 2 view .LVU59
 231 0016 0134     		adds	r4, r4, #1
 232              	.LVL11:
  62:controller/controller.c ****     for (size_t i = 0; i < read_size; i++)
 233              		.loc 1 62 40 is_stmt 0 discriminator 2 view .LVU60
 234 0018 F4E7     		b	.L6
 235              	.LVL12:
 236              	.L11:
  66:controller/controller.c ****         {
  67:controller/controller.c ****             log_error("Configuration load failed!");
 237              		.loc 1 67 13 is_stmt 1 view .LVU61
 238 001a 0348     		ldr	r0, .L12+4
 239              	.LVL13:
 240              		.loc 1 67 13 is_stmt 0 view .LVU62
 241 001c FFF7FEFF 		bl	log_error
 242              	.LVL14:
  68:controller/controller.c ****             break;
 243              		.loc 1 68 13 is_stmt 1 view .LVU63
 244              	.L5:
 245              		.loc 1 68 13 is_stmt 0 view .LVU64
 246              	.LBE2:
  69:controller/controller.c ****         }
  70:controller/controller.c ****     }
  71:controller/controller.c **** }
 247              		.loc 1 71 1 view .LVU65
 248 0020 10BD     		pop	{r4, pc}
 249              	.LVL15:
 250              	.L13:
 251              		.loc 1 71 1 view .LVU66
 252 0022 00BF     		.align	2
 253              	.L12:
 254 0024 00000000 		.word	configuration
 255 0028 00000000 		.word	.LC1
 256              		.cfi_endproc
 257              	.LFE229:
 259              		.section	.rodata.controller_save_configuration.str1.4,"aMS",%progbits,1
 260              		.align	2
 261              	.LC2:
 262 0000 436F6E66 		.ascii	"Configuration save failed!\000"
 262      69677572 
 262      6174696F 
 262      6E207361 
 262      76652066 
 263              		.section	.text.controller_save_configuration,"ax",%progbits
 264              		.align	1
 265              		.global	controller_save_configuration
ARM GAS  C:\Users\alireza\AppData\Local\Temp\ccwrs5HQ.s 			page 7


 266              		.syntax unified
 267              		.thumb
 268              		.thumb_func
 270              	controller_save_configuration:
 271              	.LFB230:
  72:controller/controller.c **** 
  73:controller/controller.c **** void controller_save_configuration()
  74:controller/controller.c **** {
 272              		.loc 1 74 1 is_stmt 1 view -0
 273              		.cfi_startproc
 274              		@ args = 0, pretend = 0, frame = 0
 275              		@ frame_needed = 0, uses_anonymous_args = 0
 276 0000 10B5     		push	{r4, lr}
 277              		.cfi_def_cfa_offset 8
 278              		.cfi_offset 4, -8
 279              		.cfi_offset 14, -4
  75:controller/controller.c ****     uint16_t status = HAL_OK;
 280              		.loc 1 75 5 view .LVU68
 281              	.LVL16:
  76:controller/controller.c ****     uint32_t write_size = sizeof(configuration) / sizeof(uint16_t);
 282              		.loc 1 76 5 view .LVU69
  77:controller/controller.c ****     uint16_t *starting_point = (uint16_t *) &configuration;
 283              		.loc 1 77 5 view .LVU70
  78:controller/controller.c ****     for (size_t i = 0; i < write_size; i++)
 284              		.loc 1 78 5 view .LVU71
 285              	.LBB3:
 286              		.loc 1 78 10 view .LVU72
 287              		.loc 1 78 17 is_stmt 0 view .LVU73
 288 0002 0024     		movs	r4, #0
 289              		.loc 1 78 5 view .LVU74
 290 0004 03E0     		b	.L15
 291              	.LVL17:
 292              	.L20:
  79:controller/controller.c ****     {
  80:controller/controller.c ****         status = EE_WriteVariable(i, *(starting_point + i));
  81:controller/controller.c ****         if (status != HAL_OK)
  82:controller/controller.c ****         {
  83:controller/controller.c ****             log_error("Configuration save failed!");
 293              		.loc 1 83 13 is_stmt 1 view .LVU75
 294 0006 0848     		ldr	r0, .L21
 295              	.LVL18:
 296              		.loc 1 83 13 is_stmt 0 view .LVU76
 297 0008 FFF7FEFF 		bl	log_error
 298              	.LVL19:
 299              	.L16:
  78:controller/controller.c ****     for (size_t i = 0; i < write_size; i++)
 300              		.loc 1 78 41 is_stmt 1 discriminator 2 view .LVU77
 301 000c 0134     		adds	r4, r4, #1
 302              	.LVL20:
 303              	.L15:
  78:controller/controller.c ****     for (size_t i = 0; i < write_size; i++)
 304              		.loc 1 78 26 discriminator 1 view .LVU78
 305 000e 4D2C     		cmp	r4, #77
 306 0010 08D8     		bhi	.L19
  80:controller/controller.c ****         if (status != HAL_OK)
 307              		.loc 1 80 9 view .LVU79
  80:controller/controller.c ****         if (status != HAL_OK)
ARM GAS  C:\Users\alireza\AppData\Local\Temp\ccwrs5HQ.s 			page 8


 308              		.loc 1 80 18 is_stmt 0 view .LVU80
 309 0012 064B     		ldr	r3, .L21+4
 310 0014 33F81410 		ldrh	r1, [r3, r4, lsl #1]
 311 0018 A0B2     		uxth	r0, r4
 312 001a FFF7FEFF 		bl	EE_WriteVariable
 313              	.LVL21:
  81:controller/controller.c ****         {
 314              		.loc 1 81 9 is_stmt 1 view .LVU81
  81:controller/controller.c ****         {
 315              		.loc 1 81 12 is_stmt 0 view .LVU82
 316 001e 0028     		cmp	r0, #0
 317 0020 F4D0     		beq	.L16
 318 0022 F0E7     		b	.L20
 319              	.LVL22:
 320              	.L19:
  81:controller/controller.c ****         {
 321              		.loc 1 81 12 view .LVU83
 322              	.LBE3:
  84:controller/controller.c ****         }
  85:controller/controller.c ****     }
  86:controller/controller.c **** }
 323              		.loc 1 86 1 view .LVU84
 324 0024 10BD     		pop	{r4, pc}
 325              	.LVL23:
 326              	.L22:
 327              		.loc 1 86 1 view .LVU85
 328 0026 00BF     		.align	2
 329              	.L21:
 330 0028 00000000 		.word	.LC2
 331 002c 00000000 		.word	configuration
 332              		.cfi_endproc
 333              	.LFE230:
 335              		.section	.data.etb1_tps.0,"aw"
 336              		.align	2
 339              	etb1_tps.0:
 340 0000 FF0F     		.short	4095
 341 0002 0000     		.short	0
 342 0004 00       		.byte	0
 343 0005 00       		.byte	0
 344              		.section	.bss.etb1_motor.1,"aw",%nobits
 345              		.align	2
 348              	etb1_motor.1:
 349 0000 00000000 		.space	16
 349      00000000 
 349      00000000 
 349      00000000 
 350              		.section	.data.etb1_pid.2,"aw"
 351              		.align	2
 354              	etb1_pid.2:
 355 0000 00002041 		.word	1092616192
 356 0004 00000000 		.word	0
 357 0008 00000000 		.word	0
 358 000c 00000000 		.space	40
 358      00000000 
 358      00000000 
 358      00000000 
 358      00000000 
ARM GAS  C:\Users\alireza\AppData\Local\Temp\ccwrs5HQ.s 			page 9


 359 0034 00004842 		.word	1112014848
 360 0038 00000000 		.space	4
 361              		.section	.bss.etb1,"aw",%nobits
 362              		.align	2
 365              	etb1:
 366 0000 00000000 		.space	20
 366      00000000 
 366      00000000 
 366      00000000 
 366      00000000 
 367              		.global	engine
 368              		.section	.bss.engine,"aw",%nobits
 369              		.align	2
 372              	engine:
 373 0000 00000000 		.space	64
 373      00000000 
 373      00000000 
 373      00000000 
 373      00000000 
 374              		.global	configuration
 375              		.section	.bss.configuration,"aw",%nobits
 376              		.align	2
 379              	configuration:
 380 0000 00000000 		.space	156
 380      00000000 
 380      00000000 
 380      00000000 
 380      00000000 
 381              		.section	.rodata
 382              		.align	2
 383              		.set	.LANCHOR0,. + 0
 384              	.LC0:
 385 0000 00040240 		.word	1073873920
 386 0004 00800000 		.word	32768
 387 0008 00040240 		.word	1073873920
 388 000c 00400000 		.word	16384
 389 0010 00040240 		.word	1073873920
 390 0014 00200000 		.word	8192
 391 0018 00040240 		.word	1073873920
 392 001c 00100000 		.word	4096
 393              		.text
 394              	.Letext0:
 395              		.file 2 "controller/enums.h"
 396              		.file 3 "C:/Users/alireza/AppData/Roaming/Code/User/globalStorage/bmd.stm32-for-vscode/@xpack-dev-
 397              		.file 4 "C:/Users/alireza/AppData/Roaming/Code/User/globalStorage/bmd.stm32-for-vscode/@xpack-dev-
 398              		.file 5 "C:/Users/alireza/AppData/Roaming/Code/User/globalStorage/bmd.stm32-for-vscode/@xpack-dev-
 399              		.file 6 "Drivers/CMSIS/Device/ST/STM32F4xx/Include/stm32f401xc.h"
 400              		.file 7 "Drivers/CMSIS/Device/ST/STM32F4xx/Include/stm32f4xx.h"
 401              		.file 8 "Drivers/STM32F4xx_HAL_Driver/Inc/stm32f4xx_hal_def.h"
 402              		.file 9 "Drivers/STM32F4xx_HAL_Driver/Inc/stm32f4xx_hal_dma.h"
 403              		.file 10 "Drivers/STM32F4xx_HAL_Driver/Inc/stm32f4xx_hal_adc.h"
 404              		.file 11 "Drivers/STM32F4xx_HAL_Driver/Inc/stm32f4xx_hal_tim.h"
 405              		.file 12 "controller/types.h"
 406              		.file 13 "Core/Inc/tim.h"
 407              		.file 14 "controller/engine_cycle/trigger.h"
 408              		.file 15 "controller/actuators/dc_motors.h"
 409              		.file 16 "controller/IO/analog_inputs.h"
ARM GAS  C:\Users\alireza\AppData\Local\Temp\ccwrs5HQ.s 			page 10


 410              		.file 17 "controller/IO/sensors/tps.h"
 411              		.file 18 "controller/IO/thermistor.h"
 412              		.file 19 "controller/engine_cycle/ignition.h"
 413              		.file 20 "controller/utils/pid.h"
 414              		.file 21 "controller/actuators/electronic_throttle.h"
 415              		.file 22 "Core/Inc/adc.h"
 416              		.file 23 "controller/algorithm/governer.h"
 417              		.file 24 "controller/controller.h"
 418              		.file 25 "controller/eeprom/eeprom.h"
 419              		.file 26 "controller/utils/error_handling.h"
 420              		.file 27 "controller/utils/timing.h"
ARM GAS  C:\Users\alireza\AppData\Local\Temp\ccwrs5HQ.s 			page 11


DEFINED SYMBOLS
                            *ABS*:00000000 controller.c
C:\Users\alireza\AppData\Local\Temp\ccwrs5HQ.s:21     .text.controller_init:00000000 $t
C:\Users\alireza\AppData\Local\Temp\ccwrs5HQ.s:27     .text.controller_init:00000000 controller_init
C:\Users\alireza\AppData\Local\Temp\ccwrs5HQ.s:167    .text.controller_init:000000ac $d
C:\Users\alireza\AppData\Local\Temp\ccwrs5HQ.s:372    .bss.engine:00000000 engine
C:\Users\alireza\AppData\Local\Temp\ccwrs5HQ.s:379    .bss.configuration:00000000 configuration
C:\Users\alireza\AppData\Local\Temp\ccwrs5HQ.s:354    .data.etb1_pid.2:00000000 etb1_pid.2
C:\Users\alireza\AppData\Local\Temp\ccwrs5HQ.s:348    .bss.etb1_motor.1:00000000 etb1_motor.1
C:\Users\alireza\AppData\Local\Temp\ccwrs5HQ.s:365    .bss.etb1:00000000 etb1
C:\Users\alireza\AppData\Local\Temp\ccwrs5HQ.s:339    .data.etb1_tps.0:00000000 etb1_tps.0
C:\Users\alireza\AppData\Local\Temp\ccwrs5HQ.s:186    .rodata.controller_load_configuration.str1.4:00000000 $d
C:\Users\alireza\AppData\Local\Temp\ccwrs5HQ.s:190    .text.controller_load_configuration:00000000 $t
C:\Users\alireza\AppData\Local\Temp\ccwrs5HQ.s:196    .text.controller_load_configuration:00000000 controller_load_configuration
C:\Users\alireza\AppData\Local\Temp\ccwrs5HQ.s:254    .text.controller_load_configuration:00000024 $d
C:\Users\alireza\AppData\Local\Temp\ccwrs5HQ.s:260    .rodata.controller_save_configuration.str1.4:00000000 $d
C:\Users\alireza\AppData\Local\Temp\ccwrs5HQ.s:264    .text.controller_save_configuration:00000000 $t
C:\Users\alireza\AppData\Local\Temp\ccwrs5HQ.s:270    .text.controller_save_configuration:00000000 controller_save_configuration
C:\Users\alireza\AppData\Local\Temp\ccwrs5HQ.s:330    .text.controller_save_configuration:00000028 $d
C:\Users\alireza\AppData\Local\Temp\ccwrs5HQ.s:336    .data.etb1_tps.0:00000000 $d
C:\Users\alireza\AppData\Local\Temp\ccwrs5HQ.s:345    .bss.etb1_motor.1:00000000 $d
C:\Users\alireza\AppData\Local\Temp\ccwrs5HQ.s:351    .data.etb1_pid.2:00000000 $d
C:\Users\alireza\AppData\Local\Temp\ccwrs5HQ.s:362    .bss.etb1:00000000 $d
C:\Users\alireza\AppData\Local\Temp\ccwrs5HQ.s:369    .bss.engine:00000000 $d
C:\Users\alireza\AppData\Local\Temp\ccwrs5HQ.s:376    .bss.configuration:00000000 $d
C:\Users\alireza\AppData\Local\Temp\ccwrs5HQ.s:382    .rodata:00000000 $d

UNDEFINED SYMBOLS
controller_timing_start
analog_inputs_init
trigger_init
ignition_init
pid_init
dc_motor_init
electronic_throttle_init
governer_init
htim2
hadc1
htim1
EE_ReadVariable
log_error
EE_WriteVariable
