ARM GAS  C:\Users\alireza\AppData\Local\Temp\ccu6k9Y0.s 			page 1


   1              		.cpu cortex-m4
   2              		.arch armv7e-m
   3              		.fpu fpv4-sp-d16
   4              		.eabi_attribute 27, 1
   5              		.eabi_attribute 28, 1
   6              		.eabi_attribute 20, 1
   7              		.eabi_attribute 21, 1
   8              		.eabi_attribute 23, 3
   9              		.eabi_attribute 24, 1
  10              		.eabi_attribute 25, 1
  11              		.eabi_attribute 26, 1
  12              		.eabi_attribute 30, 1
  13              		.eabi_attribute 34, 1
  14              		.eabi_attribute 18, 4
  15              		.file	"electronic_throttle.c"
  16              		.text
  17              	.Ltext0:
  18              		.cfi_sections	.debug_frame
  19              		.file 1 "controller/actuators/electronic_throttle.c"
  20              		.section	.rodata.electronic_throttle_update.str1.4,"aMS",%progbits,1
  21              		.align	2
  22              	.LC0:
  23 0000 456C6563 		.ascii	"Electronic throttle not initialized\000"
  23      74726F6E 
  23      69632074 
  23      68726F74 
  23      746C6520 
  24              		.section	.text.electronic_throttle_update,"ax",%progbits
  25              		.align	1
  26              		.global	electronic_throttle_update
  27              		.syntax unified
  28              		.thumb
  29              		.thumb_func
  31              	electronic_throttle_update:
  32              	.LVL0:
  33              	.LFB232:
   1:controller/actuators/electronic_throttle.c **** #include "electronic_throttle.h"
   2:controller/actuators/electronic_throttle.c **** 
   3:controller/actuators/electronic_throttle.c **** void electronic_throttle_tone_fail(electronic_throttle_t *etb);
   4:controller/actuators/electronic_throttle.c **** void electronic_throttle_tone_success(electronic_throttle_t *etb);
   5:controller/actuators/electronic_throttle.c **** 
   6:controller/actuators/electronic_throttle.c **** void electronic_throttle_init(electronic_throttle_t *etb, pid_t *pid, sensor_tps_t *sensor, dc_moto
   7:controller/actuators/electronic_throttle.c **** {
   8:controller/actuators/electronic_throttle.c ****     if (etb == NULL || sensor == NULL || motor == NULL)
   9:controller/actuators/electronic_throttle.c ****     {
  10:controller/actuators/electronic_throttle.c ****         log_error("Electronic throttle init failed");
  11:controller/actuators/electronic_throttle.c ****         return;
  12:controller/actuators/electronic_throttle.c ****     }
  13:controller/actuators/electronic_throttle.c ****     
  14:controller/actuators/electronic_throttle.c ****     etb->pid = pid;
  15:controller/actuators/electronic_throttle.c ****     etb->sensor = sensor;
  16:controller/actuators/electronic_throttle.c ****     etb->motor = motor;
  17:controller/actuators/electronic_throttle.c ****     etb->target_position = ELECTRONIC_THROTTLE_FAIL_SAFE_POSITION;
  18:controller/actuators/electronic_throttle.c **** 
  19:controller/actuators/electronic_throttle.c ****     etb->pid->limit_output_max = (float)255;
  20:controller/actuators/electronic_throttle.c ****     etb->pid->limit_output_min = (float)-255;
  21:controller/actuators/electronic_throttle.c ****     etb->pid->limit_integrator_max = (float)250;
ARM GAS  C:\Users\alireza\AppData\Local\Temp\ccu6k9Y0.s 			page 2


  22:controller/actuators/electronic_throttle.c ****     etb->pid->limit_integrator_min = (float)-250;
  23:controller/actuators/electronic_throttle.c ****     
  24:controller/actuators/electronic_throttle.c ****     //electronic_throttle_auto_tune(etb);
  25:controller/actuators/electronic_throttle.c **** 
  26:controller/actuators/electronic_throttle.c ****     //electronic_throttle_update(etb);
  27:controller/actuators/electronic_throttle.c ****     osTimerId_t timer_id = osTimerNew(
  28:controller/actuators/electronic_throttle.c ****         electronic_throttle_update,
  29:controller/actuators/electronic_throttle.c ****         osTimerPeriodic,
  30:controller/actuators/electronic_throttle.c ****         etb,
  31:controller/actuators/electronic_throttle.c ****         NULL
  32:controller/actuators/electronic_throttle.c ****     );
  33:controller/actuators/electronic_throttle.c ****     osTimerStart(timer_id, 1); // every 1 tick = every 1ms = 1000Hz
  34:controller/actuators/electronic_throttle.c ****     etb->state = ETB_STATE_NORMAL;
  35:controller/actuators/electronic_throttle.c **** 
  36:controller/actuators/electronic_throttle.c **** }
  37:controller/actuators/electronic_throttle.c **** 
  38:controller/actuators/electronic_throttle.c **** void electronic_throttle_set(electronic_throttle_t *etb, percent_t position)
  39:controller/actuators/electronic_throttle.c **** {
  40:controller/actuators/electronic_throttle.c ****     if (!IS_IN_RANGE(position, (percent_t)0, (percent_t)100))
  41:controller/actuators/electronic_throttle.c ****     {
  42:controller/actuators/electronic_throttle.c ****         etb->target_position = ELECTRONIC_THROTTLE_FAIL_SAFE_POSITION;
  43:controller/actuators/electronic_throttle.c ****     }
  44:controller/actuators/electronic_throttle.c ****     etb->target_position = position;
  45:controller/actuators/electronic_throttle.c **** }
  46:controller/actuators/electronic_throttle.c **** 
  47:controller/actuators/electronic_throttle.c **** void electronic_throttle_update(void *arg)
  48:controller/actuators/electronic_throttle.c **** {
  34              		.loc 1 48 1 view -0
  35              		.cfi_startproc
  36              		@ args = 0, pretend = 0, frame = 8
  37              		@ frame_needed = 0, uses_anonymous_args = 0
  38              		.loc 1 48 1 is_stmt 0 view .LVU1
  39 0000 30B5     		push	{r4, r5, lr}
  40              		.cfi_def_cfa_offset 12
  41              		.cfi_offset 4, -12
  42              		.cfi_offset 5, -8
  43              		.cfi_offset 14, -4
  44 0002 2DED028B 		vpush.64	{d8}
  45              		.cfi_def_cfa_offset 20
  46              		.cfi_offset 80, -20
  47              		.cfi_offset 81, -16
  48 0006 83B0     		sub	sp, sp, #12
  49              		.cfi_def_cfa_offset 32
  49:controller/actuators/electronic_throttle.c ****     
  50:controller/actuators/electronic_throttle.c ****     electronic_throttle_t *etb = (electronic_throttle_t *)arg;
  50              		.loc 1 50 5 is_stmt 1 view .LVU2
  51              	.LVL1:
  51:controller/actuators/electronic_throttle.c ****     if (etb == NULL || etb->pid == NULL || etb->sensor == NULL || etb->motor == NULL)
  52              		.loc 1 51 5 view .LVU3
  53              		.loc 1 51 8 is_stmt 0 view .LVU4
  54 0008 0028     		cmp	r0, #0
  55 000a 4AD0     		beq	.L2
  56 000c 0446     		mov	r4, r0
  57              		.loc 1 51 27 discriminator 1 view .LVU5
  58 000e 8368     		ldr	r3, [r0, #8]
  59              		.loc 1 51 21 discriminator 1 view .LVU6
  60 0010 002B     		cmp	r3, #0
ARM GAS  C:\Users\alireza\AppData\Local\Temp\ccu6k9Y0.s 			page 3


  61 0012 46D0     		beq	.L2
  62              		.loc 1 51 47 discriminator 2 view .LVU7
  63 0014 C068     		ldr	r0, [r0, #12]
  64              	.LVL2:
  65              		.loc 1 51 41 discriminator 2 view .LVU8
  66 0016 0028     		cmp	r0, #0
  67 0018 43D0     		beq	.L2
  68              		.loc 1 51 70 discriminator 3 view .LVU9
  69 001a 6368     		ldr	r3, [r4, #4]
  70              		.loc 1 51 64 discriminator 3 view .LVU10
  71 001c 002B     		cmp	r3, #0
  72 001e 40D0     		beq	.L2
  52:controller/actuators/electronic_throttle.c ****     {
  53:controller/actuators/electronic_throttle.c ****         log_error("Electronic throttle not initialized");
  54:controller/actuators/electronic_throttle.c ****         return;
  55:controller/actuators/electronic_throttle.c ****     }
  56:controller/actuators/electronic_throttle.c ****     percent_t position = sensor_tps_get(etb->sensor);
  73              		.loc 1 56 5 is_stmt 1 view .LVU11
  74              		.loc 1 56 26 is_stmt 0 view .LVU12
  75 0020 FFF7FEFF 		bl	sensor_tps_get
  76              	.LVL3:
  77 0024 B0EE408A 		vmov.f32	s16, s0
  78              	.LVL4:
  57:controller/actuators/electronic_throttle.c ****     etb->current_position = position;
  79              		.loc 1 57 5 is_stmt 1 view .LVU13
  80              		.loc 1 57 27 is_stmt 0 view .LVU14
  81 0028 84ED050A 		vstr.32	s0, [r4, #20]
  58:controller/actuators/electronic_throttle.c ****     pid_set_setpoint(etb->pid, etb->target_position);
  82              		.loc 1 58 5 is_stmt 1 view .LVU15
  83 002c 94ED040A 		vldr.32	s0, [r4, #16]
  84              	.LVL5:
  85              		.loc 1 58 5 is_stmt 0 view .LVU16
  86 0030 A068     		ldr	r0, [r4, #8]
  87 0032 FFF7FEFF 		bl	pid_set_setpoint
  88              	.LVL6:
  59:controller/actuators/electronic_throttle.c ****     percent_t motor_effort = pid_compute(etb->pid, get_time_us(), position);
  89              		.loc 1 59 5 is_stmt 1 view .LVU17
  90              		.loc 1 59 30 is_stmt 0 view .LVU18
  91 0036 A568     		ldr	r5, [r4, #8]
  92 0038 FFF7FEFF 		bl	get_time_us
  93              	.LVL7:
  94 003c 0146     		mov	r1, r0
  95              		.loc 1 59 30 discriminator 1 view .LVU19
  96 003e B0EE480A 		vmov.f32	s0, s16
  97 0042 2846     		mov	r0, r5
  98 0044 FFF7FEFF 		bl	pid_compute
  99              	.LVL8:
  60:controller/actuators/electronic_throttle.c ****     dc_motor_direction_t dir = motor_effort > 0 ? MOTOR_DIRECTION_FORWARD : MOTOR_DIRECTION_REVERSE
 100              		.loc 1 60 5 is_stmt 1 view .LVU20
 101              		.loc 1 60 45 is_stmt 0 view .LVU21
 102 0048 B5EEC00A 		vcmpe.f32	s0, #0
 103 004c F1EE10FA 		vmrs	APSR_nzcv, FPSCR
 104              		.loc 1 60 75 view .LVU22
 105 0050 D4BF     		ite	le
 106 0052 0121     		movle	r1, #1
 107 0054 0021     		movgt	r1, #0
 108              	.LVL9:
ARM GAS  C:\Users\alireza\AppData\Local\Temp\ccu6k9Y0.s 			page 4


  61:controller/actuators/electronic_throttle.c ****     /* Limiting the end of travel duty cycle for protection */
  62:controller/actuators/electronic_throttle.c ****     if (etb->is_duty_cycle_limiting_enabled)
 109              		.loc 1 62 5 is_stmt 1 view .LVU23
 110              		.loc 1 62 12 is_stmt 0 view .LVU24
 111 0056 94F82030 		ldrb	r3, [r4, #32]	@ zero_extendqisi2
 112              		.loc 1 62 8 view .LVU25
 113 005a 002B     		cmp	r3, #0
 114 005c 51D0     		beq	.L5
  63:controller/actuators/electronic_throttle.c ****     {
  64:controller/actuators/electronic_throttle.c ****         if (ABS(position - 100.0f) < ELECTRONIC_THROTTLE_NEAR_END_OF_TRAVEL_THRESHOLD)
 115              		.loc 1 64 9 is_stmt 1 view .LVU26
 116              		.loc 1 64 13 is_stmt 0 view .LVU27
 117 005e DFED3C7A 		vldr.32	s15, .L33
 118 0062 78EE677A 		vsub.f32	s15, s16, s15
 119              		.loc 1 64 36 view .LVU28
 120 0066 F5EEC07A 		vcmpe.f32	s15, #0
 121 006a F1EE10FA 		vmrs	APSR_nzcv, FPSCR
 122 006e 1FD4     		bmi	.L29
 123              		.loc 1 64 36 discriminator 2 view .LVU29
 124 0070 B6EE007A 		vmov.f32	s14, #5.0e-1
 125 0074 F4EEC77A 		vcmpe.f32	s15, s14
 126 0078 F1EE10FA 		vmrs	APSR_nzcv, FPSCR
 127 007c 4CBF     		ite	mi
 128 007e 0123     		movmi	r3, #1
 129 0080 0023     		movpl	r3, #0
 130              	.L8:
 131              		.loc 1 64 12 discriminator 4 view .LVU30
 132 0082 0BB3     		cbz	r3, .L9
  65:controller/actuators/electronic_throttle.c ****         {
  66:controller/actuators/electronic_throttle.c ****             motor_effort = CLAMP(motor_effort, 0, etb->duty_cycle_limiting_upper);
 133              		.loc 1 66 13 is_stmt 1 view .LVU31
 134              		.loc 1 66 28 is_stmt 0 view .LVU32
 135 0084 B5EEC00A 		vcmpe.f32	s0, #0
 136 0088 F1EE10FA 		vmrs	APSR_nzcv, FPSCR
 137 008c 1AD4     		bmi	.L18
 138              		.loc 1 66 28 discriminator 2 view .LVU33
 139 008e D4ED077A 		vldr.32	s15, [r4, #28]
 140 0092 F4EEC07A 		vcmpe.f32	s15, s0
 141 0096 F1EE10FA 		vmrs	APSR_nzcv, FPSCR
 142 009a 15D5     		bpl	.L9
 143              		.loc 1 66 28 discriminator 4 view .LVU34
 144 009c B0EE670A 		vmov.f32	s0, s15
 145              	.LVL10:
 146              		.loc 1 66 28 discriminator 4 view .LVU35
 147 00a0 12E0     		b	.L9
 148              	.LVL11:
 149              	.L2:
  53:controller/actuators/electronic_throttle.c ****         return;
 150              		.loc 1 53 9 is_stmt 1 view .LVU36
 151 00a2 2C48     		ldr	r0, .L33+4
 152 00a4 FFF7FEFF 		bl	log_error
 153              	.LVL12:
  54:controller/actuators/electronic_throttle.c ****     }
 154              		.loc 1 54 9 view .LVU37
 155              	.L1:
  67:controller/actuators/electronic_throttle.c ****         }
  68:controller/actuators/electronic_throttle.c ****         if (ABS(position - 0.0f) < ELECTRONIC_THROTTLE_NEAR_END_OF_TRAVEL_THRESHOLD)
ARM GAS  C:\Users\alireza\AppData\Local\Temp\ccu6k9Y0.s 			page 5


  69:controller/actuators/electronic_throttle.c ****         {
  70:controller/actuators/electronic_throttle.c ****             motor_effort = CLAMP(motor_effort, 0, etb->duty_cycle_limiting_lower);
  71:controller/actuators/electronic_throttle.c ****         }
  72:controller/actuators/electronic_throttle.c ****     }
  73:controller/actuators/electronic_throttle.c ****     dc_motor_set(etb->motor, dir ,  (uint8_t)ABS(motor_effort));
  74:controller/actuators/electronic_throttle.c **** }
 156              		.loc 1 74 1 is_stmt 0 view .LVU38
 157 00a8 03B0     		add	sp, sp, #12
 158              		.cfi_remember_state
 159              		.cfi_def_cfa_offset 20
 160              		@ sp needed
 161 00aa BDEC028B 		vldm	sp!, {d8}
 162              		.cfi_restore 80
 163              		.cfi_restore 81
 164              		.cfi_def_cfa_offset 12
 165 00ae 30BD     		pop	{r4, r5, pc}
 166              	.LVL13:
 167              	.L29:
 168              		.cfi_restore_state
  64:controller/actuators/electronic_throttle.c ****         {
 169              		.loc 1 64 36 discriminator 1 view .LVU39
 170 00b0 BEEE007A 		vmov.f32	s14, #-5.0e-1
 171 00b4 F4EEC77A 		vcmpe.f32	s15, s14
 172 00b8 F1EE10FA 		vmrs	APSR_nzcv, FPSCR
 173 00bc CCBF     		ite	gt
 174 00be 0123     		movgt	r3, #1
 175 00c0 0023     		movle	r3, #0
 176 00c2 DEE7     		b	.L8
 177              	.L18:
  66:controller/actuators/electronic_throttle.c ****         }
 178              		.loc 1 66 28 discriminator 1 view .LVU40
 179 00c4 9FED240A 		vldr.32	s0, .L33+8
 180              	.LVL14:
 181              	.L9:
  68:controller/actuators/electronic_throttle.c ****         {
 182              		.loc 1 68 9 is_stmt 1 view .LVU41
  68:controller/actuators/electronic_throttle.c ****         {
 183              		.loc 1 68 34 is_stmt 0 view .LVU42
 184 00c8 B5EEC08A 		vcmpe.f32	s16, #0
 185 00cc F1EE10FA 		vmrs	APSR_nzcv, FPSCR
 186 00d0 26D4     		bmi	.L30
  68:controller/actuators/electronic_throttle.c ****         {
 187              		.loc 1 68 34 discriminator 2 view .LVU43
 188 00d2 F6EE007A 		vmov.f32	s15, #5.0e-1
 189 00d6 B4EEE78A 		vcmpe.f32	s16, s15
 190 00da F1EE10FA 		vmrs	APSR_nzcv, FPSCR
 191 00de 4CBF     		ite	mi
 192 00e0 0123     		movmi	r3, #1
 193 00e2 0023     		movpl	r3, #0
 194              	.L12:
  68:controller/actuators/electronic_throttle.c ****         {
 195              		.loc 1 68 12 discriminator 4 view .LVU44
 196 00e4 6BB1     		cbz	r3, .L5
  70:controller/actuators/electronic_throttle.c ****         }
 197              		.loc 1 70 13 is_stmt 1 view .LVU45
  70:controller/actuators/electronic_throttle.c ****         }
 198              		.loc 1 70 28 is_stmt 0 view .LVU46
ARM GAS  C:\Users\alireza\AppData\Local\Temp\ccu6k9Y0.s 			page 6


 199 00e6 B5EEC00A 		vcmpe.f32	s0, #0
 200 00ea F1EE10FA 		vmrs	APSR_nzcv, FPSCR
 201 00ee 21D4     		bmi	.L31
  70:controller/actuators/electronic_throttle.c ****         }
 202              		.loc 1 70 28 discriminator 2 view .LVU47
 203 00f0 D4ED067A 		vldr.32	s15, [r4, #24]
 204 00f4 F4EEC07A 		vcmpe.f32	s15, s0
 205 00f8 F1EE10FA 		vmrs	APSR_nzcv, FPSCR
 206 00fc 01D5     		bpl	.L5
  70:controller/actuators/electronic_throttle.c ****         }
 207              		.loc 1 70 28 discriminator 4 view .LVU48
 208 00fe B0EE670A 		vmov.f32	s0, s15
 209              	.LVL15:
 210              	.L5:
  73:controller/actuators/electronic_throttle.c **** }
 211              		.loc 1 73 5 is_stmt 1 view .LVU49
 212 0102 6068     		ldr	r0, [r4, #4]
 213 0104 B5EEC00A 		vcmpe.f32	s0, #0
 214 0108 F1EE10FA 		vmrs	APSR_nzcv, FPSCR
 215 010c 16D4     		bmi	.L32
 216              	.LVL16:
 217              	.L15:
  73:controller/actuators/electronic_throttle.c **** }
 218              		.loc 1 73 5 is_stmt 0 discriminator 2 view .LVU50
 219 010e FCEEC07A 		vcvt.u32.f32	s15, s0
 220 0112 CDED017A 		vstr.32	s15, [sp, #4]	@ int
 221 0116 9DF80420 		ldrb	r2, [sp, #4]	@ zero_extendqisi2
 222              	.L17:
  73:controller/actuators/electronic_throttle.c **** }
 223              		.loc 1 73 5 discriminator 4 view .LVU51
 224 011a FFF7FEFF 		bl	dc_motor_set
 225              	.LVL17:
  73:controller/actuators/electronic_throttle.c **** }
 226              		.loc 1 73 5 discriminator 4 view .LVU52
 227 011e C3E7     		b	.L1
 228              	.LVL18:
 229              	.L30:
  68:controller/actuators/electronic_throttle.c ****         {
 230              		.loc 1 68 34 discriminator 1 view .LVU53
 231 0120 FEEE007A 		vmov.f32	s15, #-5.0e-1
 232 0124 B4EEE78A 		vcmpe.f32	s16, s15
 233 0128 F1EE10FA 		vmrs	APSR_nzcv, FPSCR
 234 012c CCBF     		ite	gt
 235 012e 0123     		movgt	r3, #1
 236 0130 0023     		movle	r3, #0
 237 0132 D7E7     		b	.L12
 238              	.L31:
 239              	.LVL19:
  73:controller/actuators/electronic_throttle.c **** }
 240              		.loc 1 73 5 is_stmt 1 view .LVU54
 241 0134 6068     		ldr	r0, [r4, #4]
  70:controller/actuators/electronic_throttle.c ****         }
 242              		.loc 1 70 26 is_stmt 0 discriminator 8 view .LVU55
 243 0136 9FED080A 		vldr.32	s0, .L33+8
 244 013a E8E7     		b	.L15
 245              	.LVL20:
 246              	.L32:
ARM GAS  C:\Users\alireza\AppData\Local\Temp\ccu6k9Y0.s 			page 7


  73:controller/actuators/electronic_throttle.c **** }
 247              		.loc 1 73 46 discriminator 1 view .LVU56
 248 013c B1EE400A 		vneg.f32	s0, s0
 249              	.LVL21:
  73:controller/actuators/electronic_throttle.c **** }
 250              		.loc 1 73 5 discriminator 1 view .LVU57
 251 0140 FCEEC07A 		vcvt.u32.f32	s15, s0
 252 0144 CDED017A 		vstr.32	s15, [sp, #4]	@ int
 253 0148 9DF80420 		ldrb	r2, [sp, #4]	@ zero_extendqisi2
 254 014c E5E7     		b	.L17
 255              	.L34:
 256 014e 00BF     		.align	2
 257              	.L33:
 258 0150 0000C842 		.word	1120403456
 259 0154 00000000 		.word	.LC0
 260 0158 00000000 		.word	0
 261              		.cfi_endproc
 262              	.LFE232:
 264              		.section	.rodata.electronic_throttle_init.str1.4,"aMS",%progbits,1
 265              		.align	2
 266              	.LC1:
 267 0000 456C6563 		.ascii	"Electronic throttle init failed\000"
 267      74726F6E 
 267      69632074 
 267      68726F74 
 267      746C6520 
 268              		.section	.text.electronic_throttle_init,"ax",%progbits
 269              		.align	1
 270              		.global	electronic_throttle_init
 271              		.syntax unified
 272              		.thumb
 273              		.thumb_func
 275              	electronic_throttle_init:
 276              	.LVL22:
 277              	.LFB230:
   7:controller/actuators/electronic_throttle.c ****     if (etb == NULL || sensor == NULL || motor == NULL)
 278              		.loc 1 7 1 is_stmt 1 view -0
 279              		.cfi_startproc
 280              		@ args = 0, pretend = 0, frame = 0
 281              		@ frame_needed = 0, uses_anonymous_args = 0
   7:controller/actuators/electronic_throttle.c ****     if (etb == NULL || sensor == NULL || motor == NULL)
 282              		.loc 1 7 1 is_stmt 0 view .LVU59
 283 0000 10B5     		push	{r4, lr}
 284              		.cfi_def_cfa_offset 8
 285              		.cfi_offset 4, -8
 286              		.cfi_offset 14, -4
   8:controller/actuators/electronic_throttle.c ****     {
 287              		.loc 1 8 5 is_stmt 1 view .LVU60
   8:controller/actuators/electronic_throttle.c ****     {
 288              		.loc 1 8 8 is_stmt 0 view .LVU61
 289 0002 F0B1     		cbz	r0, .L36
 290 0004 0446     		mov	r4, r0
   8:controller/actuators/electronic_throttle.c ****     {
 291              		.loc 1 8 21 discriminator 1 view .LVU62
 292 0006 E2B1     		cbz	r2, .L36
   8:controller/actuators/electronic_throttle.c ****     {
 293              		.loc 1 8 39 discriminator 2 view .LVU63
ARM GAS  C:\Users\alireza\AppData\Local\Temp\ccu6k9Y0.s 			page 8


 294 0008 DBB1     		cbz	r3, .L36
  14:controller/actuators/electronic_throttle.c ****     etb->sensor = sensor;
 295              		.loc 1 14 5 is_stmt 1 view .LVU64
  14:controller/actuators/electronic_throttle.c ****     etb->sensor = sensor;
 296              		.loc 1 14 14 is_stmt 0 view .LVU65
 297 000a 8160     		str	r1, [r0, #8]
  15:controller/actuators/electronic_throttle.c ****     etb->motor = motor;
 298              		.loc 1 15 5 is_stmt 1 view .LVU66
  15:controller/actuators/electronic_throttle.c ****     etb->motor = motor;
 299              		.loc 1 15 17 is_stmt 0 view .LVU67
 300 000c C260     		str	r2, [r0, #12]
  16:controller/actuators/electronic_throttle.c ****     etb->target_position = ELECTRONIC_THROTTLE_FAIL_SAFE_POSITION;
 301              		.loc 1 16 5 is_stmt 1 view .LVU68
  16:controller/actuators/electronic_throttle.c ****     etb->target_position = ELECTRONIC_THROTTLE_FAIL_SAFE_POSITION;
 302              		.loc 1 16 16 is_stmt 0 view .LVU69
 303 000e 4360     		str	r3, [r0, #4]
  17:controller/actuators/electronic_throttle.c **** 
 304              		.loc 1 17 5 is_stmt 1 view .LVU70
  17:controller/actuators/electronic_throttle.c **** 
 305              		.loc 1 17 26 is_stmt 0 view .LVU71
 306 0010 0023     		movs	r3, #0
 307              	.LVL23:
  17:controller/actuators/electronic_throttle.c **** 
 308              		.loc 1 17 26 view .LVU72
 309 0012 0361     		str	r3, [r0, #16]	@ float
  19:controller/actuators/electronic_throttle.c ****     etb->pid->limit_output_min = (float)-255;
 310              		.loc 1 19 5 is_stmt 1 view .LVU73
  19:controller/actuators/electronic_throttle.c ****     etb->pid->limit_output_min = (float)-255;
 311              		.loc 1 19 32 is_stmt 0 view .LVU74
 312 0014 0D4B     		ldr	r3, .L40
 313 0016 4B61     		str	r3, [r1, #20]	@ float
 314              	.LVL24:
  20:controller/actuators/electronic_throttle.c ****     etb->pid->limit_integrator_max = (float)250;
 315              		.loc 1 20 5 is_stmt 1 view .LVU75
  20:controller/actuators/electronic_throttle.c ****     etb->pid->limit_integrator_max = (float)250;
 316              		.loc 1 20 8 is_stmt 0 view .LVU76
 317 0018 8368     		ldr	r3, [r0, #8]
  20:controller/actuators/electronic_throttle.c ****     etb->pid->limit_integrator_max = (float)250;
 318              		.loc 1 20 32 view .LVU77
 319 001a 0D4A     		ldr	r2, .L40+4
 320              	.LVL25:
  20:controller/actuators/electronic_throttle.c ****     etb->pid->limit_integrator_max = (float)250;
 321              		.loc 1 20 32 view .LVU78
 322 001c 1A61     		str	r2, [r3, #16]	@ float
  21:controller/actuators/electronic_throttle.c ****     etb->pid->limit_integrator_min = (float)-250;
 323              		.loc 1 21 5 is_stmt 1 view .LVU79
  21:controller/actuators/electronic_throttle.c ****     etb->pid->limit_integrator_min = (float)-250;
 324              		.loc 1 21 8 is_stmt 0 view .LVU80
 325 001e 8368     		ldr	r3, [r0, #8]
  21:controller/actuators/electronic_throttle.c ****     etb->pid->limit_integrator_min = (float)-250;
 326              		.loc 1 21 36 view .LVU81
 327 0020 0C4A     		ldr	r2, .L40+8
 328 0022 DA61     		str	r2, [r3, #28]	@ float
  22:controller/actuators/electronic_throttle.c ****     
 329              		.loc 1 22 5 is_stmt 1 view .LVU82
  22:controller/actuators/electronic_throttle.c ****     
 330              		.loc 1 22 8 is_stmt 0 view .LVU83
ARM GAS  C:\Users\alireza\AppData\Local\Temp\ccu6k9Y0.s 			page 9


 331 0024 8368     		ldr	r3, [r0, #8]
  22:controller/actuators/electronic_throttle.c ****     
 332              		.loc 1 22 36 view .LVU84
 333 0026 0C4A     		ldr	r2, .L40+12
 334 0028 9A61     		str	r2, [r3, #24]	@ float
  27:controller/actuators/electronic_throttle.c ****         electronic_throttle_update,
 335              		.loc 1 27 5 is_stmt 1 view .LVU85
  27:controller/actuators/electronic_throttle.c ****         electronic_throttle_update,
 336              		.loc 1 27 28 is_stmt 0 view .LVU86
 337 002a 0023     		movs	r3, #0
 338 002c 0246     		mov	r2, r0
 339 002e 0121     		movs	r1, #1
 340              	.LVL26:
  27:controller/actuators/electronic_throttle.c ****         electronic_throttle_update,
 341              		.loc 1 27 28 view .LVU87
 342 0030 0A48     		ldr	r0, .L40+16
 343              	.LVL27:
  27:controller/actuators/electronic_throttle.c ****         electronic_throttle_update,
 344              		.loc 1 27 28 view .LVU88
 345 0032 FFF7FEFF 		bl	osTimerNew
 346              	.LVL28:
  33:controller/actuators/electronic_throttle.c ****     etb->state = ETB_STATE_NORMAL;
 347              		.loc 1 33 5 is_stmt 1 view .LVU89
 348 0036 0121     		movs	r1, #1
 349 0038 FFF7FEFF 		bl	osTimerStart
 350              	.LVL29:
  34:controller/actuators/electronic_throttle.c **** 
 351              		.loc 1 34 5 view .LVU90
  34:controller/actuators/electronic_throttle.c **** 
 352              		.loc 1 34 16 is_stmt 0 view .LVU91
 353 003c 0123     		movs	r3, #1
 354 003e 2370     		strb	r3, [r4]
 355              	.LVL30:
 356              	.L35:
  36:controller/actuators/electronic_throttle.c **** 
 357              		.loc 1 36 1 view .LVU92
 358 0040 10BD     		pop	{r4, pc}
 359              	.LVL31:
 360              	.L36:
  10:controller/actuators/electronic_throttle.c ****         return;
 361              		.loc 1 10 9 is_stmt 1 view .LVU93
 362 0042 0748     		ldr	r0, .L40+20
 363              	.LVL32:
  10:controller/actuators/electronic_throttle.c ****         return;
 364              		.loc 1 10 9 is_stmt 0 view .LVU94
 365 0044 FFF7FEFF 		bl	log_error
 366              	.LVL33:
  11:controller/actuators/electronic_throttle.c ****     }
 367              		.loc 1 11 9 is_stmt 1 view .LVU95
 368 0048 FAE7     		b	.L35
 369              	.L41:
 370 004a 00BF     		.align	2
 371              	.L40:
 372 004c 00007F43 		.word	1132396544
 373 0050 00007FC3 		.word	-1015087104
 374 0054 00007A43 		.word	1132068864
 375 0058 00007AC3 		.word	-1015414784
ARM GAS  C:\Users\alireza\AppData\Local\Temp\ccu6k9Y0.s 			page 10


 376 005c 00000000 		.word	electronic_throttle_update
 377 0060 00000000 		.word	.LC1
 378              		.cfi_endproc
 379              	.LFE230:
 381              		.section	.text.electronic_throttle_set,"ax",%progbits
 382              		.align	1
 383              		.global	electronic_throttle_set
 384              		.syntax unified
 385              		.thumb
 386              		.thumb_func
 388              	electronic_throttle_set:
 389              	.LVL34:
 390              	.LFB231:
  39:controller/actuators/electronic_throttle.c ****     if (!IS_IN_RANGE(position, (percent_t)0, (percent_t)100))
 391              		.loc 1 39 1 view -0
 392              		.cfi_startproc
 393              		@ args = 0, pretend = 0, frame = 0
 394              		@ frame_needed = 0, uses_anonymous_args = 0
 395              		@ link register save eliminated.
  40:controller/actuators/electronic_throttle.c ****     {
 396              		.loc 1 40 5 view .LVU97
  40:controller/actuators/electronic_throttle.c ****     {
 397              		.loc 1 40 8 is_stmt 0 view .LVU98
 398 0000 B5EEC00A 		vcmpe.f32	s0, #0
 399 0004 F1EE10FA 		vmrs	APSR_nzcv, FPSCR
 400 0008 06DB     		blt	.L43
  40:controller/actuators/electronic_throttle.c ****     {
 401              		.loc 1 40 9 discriminator 1 view .LVU99
 402 000a DFED067A 		vldr.32	s15, .L47
 403 000e B4EEE70A 		vcmpe.f32	s0, s15
 404 0012 F1EE10FA 		vmrs	APSR_nzcv, FPSCR
 405 0016 01D9     		bls	.L45
 406              	.L43:
  42:controller/actuators/electronic_throttle.c ****     }
 407              		.loc 1 42 9 is_stmt 1 view .LVU100
  42:controller/actuators/electronic_throttle.c ****     }
 408              		.loc 1 42 30 is_stmt 0 view .LVU101
 409 0018 0023     		movs	r3, #0
 410 001a 0361     		str	r3, [r0, #16]	@ float
 411              	.L45:
  44:controller/actuators/electronic_throttle.c **** }
 412              		.loc 1 44 5 is_stmt 1 view .LVU102
  44:controller/actuators/electronic_throttle.c **** }
 413              		.loc 1 44 26 is_stmt 0 view .LVU103
 414 001c 80ED040A 		vstr.32	s0, [r0, #16]
  45:controller/actuators/electronic_throttle.c **** 
 415              		.loc 1 45 1 view .LVU104
 416 0020 7047     		bx	lr
 417              	.L48:
 418 0022 00BF     		.align	2
 419              	.L47:
 420 0024 0000C842 		.word	1120403456
 421              		.cfi_endproc
 422              	.LFE231:
 424              		.section	.rodata.electronic_throttle_auto_tune.str1.4,"aMS",%progbits,1
 425              		.align	2
 426              	.LC2:
ARM GAS  C:\Users\alireza\AppData\Local\Temp\ccu6k9Y0.s 			page 11


 427 0000 45544220 		.ascii	"ETB Auto-Tune failed. ETB is null!\000"
 427      4175746F 
 427      2D54756E 
 427      65206661 
 427      696C6564 
 428              		.section	.text.electronic_throttle_auto_tune,"ax",%progbits
 429              		.align	1
 430              		.global	electronic_throttle_auto_tune
 431              		.syntax unified
 432              		.thumb
 433              		.thumb_func
 435              	electronic_throttle_auto_tune:
 436              	.LVL35:
 437              	.LFB233:
  75:controller/actuators/electronic_throttle.c **** 
  76:controller/actuators/electronic_throttle.c **** 
  77:controller/actuators/electronic_throttle.c **** void electronic_throttle_auto_tune(electronic_throttle_t *etb)
  78:controller/actuators/electronic_throttle.c **** {
 438              		.loc 1 78 1 is_stmt 1 view -0
 439              		.cfi_startproc
 440              		@ args = 0, pretend = 0, frame = 0
 441              		@ frame_needed = 0, uses_anonymous_args = 0
 442              		.loc 1 78 1 is_stmt 0 view .LVU106
 443 0000 F8B5     		push	{r3, r4, r5, r6, r7, lr}
 444              		.cfi_def_cfa_offset 24
 445              		.cfi_offset 3, -24
 446              		.cfi_offset 4, -20
 447              		.cfi_offset 5, -16
 448              		.cfi_offset 6, -12
 449              		.cfi_offset 7, -8
 450              		.cfi_offset 14, -4
  79:controller/actuators/electronic_throttle.c ****     if (etb == NULL)
 451              		.loc 1 79 5 is_stmt 1 view .LVU107
 452              		.loc 1 79 8 is_stmt 0 view .LVU108
 453 0002 98B1     		cbz	r0, .L57
 454 0004 0546     		mov	r5, r0
  80:controller/actuators/electronic_throttle.c ****     {
  81:controller/actuators/electronic_throttle.c ****         log_error("ETB Auto-Tune failed. ETB is null!");
  82:controller/actuators/electronic_throttle.c ****         return;
  83:controller/actuators/electronic_throttle.c ****     }
  84:controller/actuators/electronic_throttle.c ****     
  85:controller/actuators/electronic_throttle.c ****     /* First, we will try to find the end of travel for open and closed positions*/
  86:controller/actuators/electronic_throttle.c ****     uint8_t opening_duty_cycle = 180; // 0 to 255
 455              		.loc 1 86 5 is_stmt 1 view .LVU109
 456              	.LVL36:
  87:controller/actuators/electronic_throttle.c ****     uint8_t closing_duty_cycle = 180; // 0 to 255
 457              		.loc 1 87 5 view .LVU110
  88:controller/actuators/electronic_throttle.c ****     uint8_t settling_time_delay = 1000; // time it takes for the etb to move and settle
 458              		.loc 1 88 5 view .LVU111
  89:controller/actuators/electronic_throttle.c ****     uint8_t number_of_samples = 10;
 459              		.loc 1 89 5 view .LVU112
  90:controller/actuators/electronic_throttle.c **** 
  91:controller/actuators/electronic_throttle.c ****     uint16_t open_adc_value = 0;
 460              		.loc 1 91 5 view .LVU113
  92:controller/actuators/electronic_throttle.c ****     uint16_t closed_adc_value = 0;
 461              		.loc 1 92 5 view .LVU114
  93:controller/actuators/electronic_throttle.c ****     uint32_t temp = 0;
ARM GAS  C:\Users\alireza\AppData\Local\Temp\ccu6k9Y0.s 			page 12


 462              		.loc 1 93 5 view .LVU115
  94:controller/actuators/electronic_throttle.c ****     
  95:controller/actuators/electronic_throttle.c ****     dc_motor_set(etb->motor, MOTOR_DIRECTION_FORWARD, opening_duty_cycle);
 463              		.loc 1 95 5 view .LVU116
 464 0006 B422     		movs	r2, #180
 465 0008 0021     		movs	r1, #0
 466 000a 4068     		ldr	r0, [r0, #4]
 467              	.LVL37:
 468              		.loc 1 95 5 is_stmt 0 view .LVU117
 469 000c FFF7FEFF 		bl	dc_motor_set
 470              	.LVL38:
  96:controller/actuators/electronic_throttle.c ****     osDelay(settling_time_delay);
 471              		.loc 1 96 5 is_stmt 1 view .LVU118
 472 0010 E820     		movs	r0, #232
 473 0012 FFF7FEFF 		bl	osDelay
 474              	.LVL39:
  97:controller/actuators/electronic_throttle.c ****     temp = 0;
 475              		.loc 1 97 5 view .LVU119
  98:controller/actuators/electronic_throttle.c ****     for (size_t i = 0; i < number_of_samples; i++)
 476              		.loc 1 98 5 view .LVU120
 477              	.LBB2:
 478              		.loc 1 98 10 view .LVU121
 479              		.loc 1 98 17 is_stmt 0 view .LVU122
 480 0016 0024     		movs	r4, #0
 481              	.LBE2:
  97:controller/actuators/electronic_throttle.c ****     temp = 0;
 482              		.loc 1 97 10 view .LVU123
 483 0018 2646     		mov	r6, r4
 484              	.LVL40:
 485              	.L52:
 486              	.LBB4:
 487              		.loc 1 98 26 is_stmt 1 discriminator 1 view .LVU124
 488 001a 092C     		cmp	r4, #9
 489 001c 0AD8     		bhi	.L58
 490              	.LBB3:
  99:controller/actuators/electronic_throttle.c ****     {
 100:controller/actuators/electronic_throttle.c ****         uint16_t adc_value = analog_inputs_get_data(etb->sensor->analog_channel);
 491              		.loc 1 100 9 view .LVU125
 492              		.loc 1 100 56 is_stmt 0 view .LVU126
 493 001e EB68     		ldr	r3, [r5, #12]
 494              		.loc 1 100 30 view .LVU127
 495 0020 1879     		ldrb	r0, [r3, #4]	@ zero_extendqisi2
 496 0022 FFF7FEFF 		bl	analog_inputs_get_data
 497              	.LVL41:
 101:controller/actuators/electronic_throttle.c ****         temp += adc_value;
 498              		.loc 1 101 9 is_stmt 1 view .LVU128
 499              		.loc 1 101 14 is_stmt 0 view .LVU129
 500 0026 0644     		add	r6, r6, r0
 501              	.LVL42:
 502              		.loc 1 101 14 view .LVU130
 503              	.LBE3:
  98:controller/actuators/electronic_throttle.c ****     for (size_t i = 0; i < number_of_samples; i++)
 504              		.loc 1 98 48 is_stmt 1 discriminator 3 view .LVU131
 505 0028 0134     		adds	r4, r4, #1
 506              	.LVL43:
  98:controller/actuators/electronic_throttle.c ****     for (size_t i = 0; i < number_of_samples; i++)
 507              		.loc 1 98 48 is_stmt 0 discriminator 3 view .LVU132
ARM GAS  C:\Users\alireza\AppData\Local\Temp\ccu6k9Y0.s 			page 13


 508 002a F6E7     		b	.L52
 509              	.LVL44:
 510              	.L57:
  98:controller/actuators/electronic_throttle.c ****     for (size_t i = 0; i < number_of_samples; i++)
 511              		.loc 1 98 48 discriminator 3 view .LVU133
 512              	.LBE4:
  81:controller/actuators/electronic_throttle.c ****         return;
 513              		.loc 1 81 9 is_stmt 1 view .LVU134
 514 002c 1648     		ldr	r0, .L60
 515              	.LVL45:
  81:controller/actuators/electronic_throttle.c ****         return;
 516              		.loc 1 81 9 is_stmt 0 view .LVU135
 517 002e FFF7FEFF 		bl	log_error
 518              	.LVL46:
  82:controller/actuators/electronic_throttle.c ****     }
 519              		.loc 1 82 9 is_stmt 1 view .LVU136
 520 0032 28E0     		b	.L49
 521              	.LVL47:
 522              	.L58:
 102:controller/actuators/electronic_throttle.c ****     }
 103:controller/actuators/electronic_throttle.c ****     open_adc_value = temp / number_of_samples;
 523              		.loc 1 103 5 view .LVU137
 524              		.loc 1 103 27 is_stmt 0 view .LVU138
 525 0034 154B     		ldr	r3, .L60+4
 526 0036 A3FB0636 		umull	r3, r6, r3, r6
 527              	.LVL48:
 528              		.loc 1 103 20 view .LVU139
 529 003a C6F3CF07 		ubfx	r7, r6, #3, #16
 530              	.LVL49:
 104:controller/actuators/electronic_throttle.c **** 
 105:controller/actuators/electronic_throttle.c ****     dc_motor_set(etb->motor, MOTOR_DIRECTION_REVERSE, 50);
 531              		.loc 1 105 5 is_stmt 1 view .LVU140
 532 003e 3222     		movs	r2, #50
 533 0040 0121     		movs	r1, #1
 534 0042 6868     		ldr	r0, [r5, #4]
 535 0044 FFF7FEFF 		bl	dc_motor_set
 536              	.LVL50:
 106:controller/actuators/electronic_throttle.c ****     osDelay(settling_time_delay);
 537              		.loc 1 106 5 view .LVU141
 538 0048 E820     		movs	r0, #232
 539 004a FFF7FEFF 		bl	osDelay
 540              	.LVL51:
 107:controller/actuators/electronic_throttle.c ****     dc_motor_set(etb->motor, MOTOR_DIRECTION_REVERSE, closing_duty_cycle);
 541              		.loc 1 107 5 view .LVU142
 542 004e B422     		movs	r2, #180
 543 0050 0121     		movs	r1, #1
 544 0052 6868     		ldr	r0, [r5, #4]
 545 0054 FFF7FEFF 		bl	dc_motor_set
 546              	.LVL52:
 108:controller/actuators/electronic_throttle.c ****     osDelay(settling_time_delay);
 547              		.loc 1 108 5 view .LVU143
 548 0058 E820     		movs	r0, #232
 549 005a FFF7FEFF 		bl	osDelay
 550              	.LVL53:
 109:controller/actuators/electronic_throttle.c ****     temp = 0;
 551              		.loc 1 109 5 view .LVU144
 110:controller/actuators/electronic_throttle.c ****     for (size_t i = 0; i < number_of_samples; i++)
ARM GAS  C:\Users\alireza\AppData\Local\Temp\ccu6k9Y0.s 			page 14


 552              		.loc 1 110 5 view .LVU145
 553              	.LBB5:
 554              		.loc 1 110 10 view .LVU146
 555              		.loc 1 110 17 is_stmt 0 view .LVU147
 556 005e 0024     		movs	r4, #0
 557              	.LVL54:
 558              		.loc 1 110 17 view .LVU148
 559              	.LBE5:
 109:controller/actuators/electronic_throttle.c ****     temp = 0;
 560              		.loc 1 109 10 view .LVU149
 561 0060 2646     		mov	r6, r4
 562              	.LVL55:
 563              	.L54:
 564              	.LBB7:
 565              		.loc 1 110 26 is_stmt 1 discriminator 1 view .LVU150
 566 0062 092C     		cmp	r4, #9
 567 0064 06D8     		bhi	.L59
 568              	.LBB6:
 111:controller/actuators/electronic_throttle.c ****     {
 112:controller/actuators/electronic_throttle.c ****         uint16_t adc_value = analog_inputs_get_data(etb->sensor->analog_channel);
 569              		.loc 1 112 9 view .LVU151
 570              		.loc 1 112 56 is_stmt 0 view .LVU152
 571 0066 EB68     		ldr	r3, [r5, #12]
 572              		.loc 1 112 30 view .LVU153
 573 0068 1879     		ldrb	r0, [r3, #4]	@ zero_extendqisi2
 574 006a FFF7FEFF 		bl	analog_inputs_get_data
 575              	.LVL56:
 113:controller/actuators/electronic_throttle.c ****         temp += adc_value;
 576              		.loc 1 113 9 is_stmt 1 view .LVU154
 577              		.loc 1 113 14 is_stmt 0 view .LVU155
 578 006e 0644     		add	r6, r6, r0
 579              	.LVL57:
 580              		.loc 1 113 14 view .LVU156
 581              	.LBE6:
 110:controller/actuators/electronic_throttle.c ****     for (size_t i = 0; i < number_of_samples; i++)
 582              		.loc 1 110 48 is_stmt 1 discriminator 3 view .LVU157
 583 0070 0134     		adds	r4, r4, #1
 584              	.LVL58:
 110:controller/actuators/electronic_throttle.c ****     for (size_t i = 0; i < number_of_samples; i++)
 585              		.loc 1 110 48 is_stmt 0 discriminator 3 view .LVU158
 586 0072 F6E7     		b	.L54
 587              	.LVL59:
 588              	.L59:
 110:controller/actuators/electronic_throttle.c ****     for (size_t i = 0; i < number_of_samples; i++)
 589              		.loc 1 110 48 discriminator 3 view .LVU159
 590              	.LBE7:
 114:controller/actuators/electronic_throttle.c ****     }
 115:controller/actuators/electronic_throttle.c ****     closed_adc_value = temp / number_of_samples;
 591              		.loc 1 115 5 is_stmt 1 view .LVU160
 592              		.loc 1 115 29 is_stmt 0 view .LVU161
 593 0074 054B     		ldr	r3, .L60+4
 594 0076 A3FB0636 		umull	r3, r6, r3, r6
 595              	.LVL60:
 596              		.loc 1 115 22 view .LVU162
 597 007a C6F3CF06 		ubfx	r6, r6, #3, #16
 598              	.LVL61:
 116:controller/actuators/electronic_throttle.c ****     
ARM GAS  C:\Users\alireza\AppData\Local\Temp\ccu6k9Y0.s 			page 15


 117:controller/actuators/electronic_throttle.c ****     etb->sensor->closed_throttle_adc_value = closed_adc_value;
 599              		.loc 1 117 5 is_stmt 1 view .LVU163
 600              		.loc 1 117 8 is_stmt 0 view .LVU164
 601 007e EB68     		ldr	r3, [r5, #12]
 602              		.loc 1 117 44 view .LVU165
 603 0080 5E80     		strh	r6, [r3, #2]	@ movhi
 118:controller/actuators/electronic_throttle.c ****     etb->sensor->wide_open_throttle_adc_value = open_adc_value;
 604              		.loc 1 118 5 is_stmt 1 view .LVU166
 605              		.loc 1 118 8 is_stmt 0 view .LVU167
 606 0082 EB68     		ldr	r3, [r5, #12]
 607              		.loc 1 118 47 view .LVU168
 608 0084 1F80     		strh	r7, [r3]	@ movhi
 609              	.LVL62:
 610              	.L49:
 119:controller/actuators/electronic_throttle.c **** 
 120:controller/actuators/electronic_throttle.c **** }...
 611              		.loc 1 120 1 view .LVU169
 612 0086 F8BD     		pop	{r3, r4, r5, r6, r7, pc}
 613              	.L61:
 614              		.align	2
 615              	.L60:
 616 0088 00000000 		.word	.LC2
 617 008c CDCCCCCC 		.word	-858993459
 618              		.cfi_endproc
 619              	.LFE233:
 621              		.text
 622              	.Letext0:
 623              		.file 2 "C:/Users/alireza/AppData/Roaming/Code/User/globalStorage/bmd.stm32-for-vscode/@xpack-dev-
 624              		.file 3 "C:/Users/alireza/AppData/Roaming/Code/User/globalStorage/bmd.stm32-for-vscode/@xpack-dev-
 625              		.file 4 "C:/Users/alireza/AppData/Roaming/Code/User/globalStorage/bmd.stm32-for-vscode/@xpack-dev-
 626              		.file 5 "Middlewares/Third_Party/FreeRTOS/Source/CMSIS_RTOS_V2/cmsis_os2.h"
 627              		.file 6 "Drivers/CMSIS/Device/ST/STM32F4xx/Include/stm32f401xc.h"
 628              		.file 7 "Drivers/STM32F4xx_HAL_Driver/Inc/stm32f4xx_hal_def.h"
 629              		.file 8 "Drivers/STM32F4xx_HAL_Driver/Inc/stm32f4xx_hal_dma.h"
 630              		.file 9 "Drivers/STM32F4xx_HAL_Driver/Inc/stm32f4xx_hal_tim.h"
 631              		.file 10 "controller/types.h"
 632              		.file 11 "controller/actuators/dc_motors.h"
 633              		.file 12 "controller/utils/pid.h"
 634              		.file 13 "controller/IO/analog_inputs.h"
 635              		.file 14 "controller/IO/sensors.h"
 636              		.file 15 "controller/actuators/electronic_throttle.h"
 637              		.file 16 "controller/utils/error_handling.h"
 638              		.file 17 "controller/utils/timing.h"
ARM GAS  C:\Users\alireza\AppData\Local\Temp\ccu6k9Y0.s 			page 16


DEFINED SYMBOLS
                            *ABS*:00000000 electronic_throttle.c
C:\Users\alireza\AppData\Local\Temp\ccu6k9Y0.s:21     .rodata.electronic_throttle_update.str1.4:00000000 $d
C:\Users\alireza\AppData\Local\Temp\ccu6k9Y0.s:25     .text.electronic_throttle_update:00000000 $t
C:\Users\alireza\AppData\Local\Temp\ccu6k9Y0.s:31     .text.electronic_throttle_update:00000000 electronic_throttle_update
C:\Users\alireza\AppData\Local\Temp\ccu6k9Y0.s:258    .text.electronic_throttle_update:00000150 $d
C:\Users\alireza\AppData\Local\Temp\ccu6k9Y0.s:265    .rodata.electronic_throttle_init.str1.4:00000000 $d
C:\Users\alireza\AppData\Local\Temp\ccu6k9Y0.s:269    .text.electronic_throttle_init:00000000 $t
C:\Users\alireza\AppData\Local\Temp\ccu6k9Y0.s:275    .text.electronic_throttle_init:00000000 electronic_throttle_init
C:\Users\alireza\AppData\Local\Temp\ccu6k9Y0.s:372    .text.electronic_throttle_init:0000004c $d
C:\Users\alireza\AppData\Local\Temp\ccu6k9Y0.s:382    .text.electronic_throttle_set:00000000 $t
C:\Users\alireza\AppData\Local\Temp\ccu6k9Y0.s:388    .text.electronic_throttle_set:00000000 electronic_throttle_set
C:\Users\alireza\AppData\Local\Temp\ccu6k9Y0.s:420    .text.electronic_throttle_set:00000024 $d
C:\Users\alireza\AppData\Local\Temp\ccu6k9Y0.s:425    .rodata.electronic_throttle_auto_tune.str1.4:00000000 $d
C:\Users\alireza\AppData\Local\Temp\ccu6k9Y0.s:429    .text.electronic_throttle_auto_tune:00000000 $t
C:\Users\alireza\AppData\Local\Temp\ccu6k9Y0.s:435    .text.electronic_throttle_auto_tune:00000000 electronic_throttle_auto_tune
C:\Users\alireza\AppData\Local\Temp\ccu6k9Y0.s:616    .text.electronic_throttle_auto_tune:00000088 $d

UNDEFINED SYMBOLS
sensor_tps_get
pid_set_setpoint
get_time_us
pid_compute
log_error
dc_motor_set
osTimerNew
osTimerStart
osDelay
analog_inputs_get_data
