ARM GAS  C:\Users\alireza\AppData\Local\Temp\ccmbkVlK.s 			page 1


   1              		.cpu cortex-m4
   2              		.arch armv7e-m
   3              		.fpu fpv4-sp-d16
   4              		.eabi_attribute 27, 1
   5              		.eabi_attribute 28, 1
   6              		.eabi_attribute 20, 1
   7              		.eabi_attribute 21, 1
   8              		.eabi_attribute 23, 3
   9              		.eabi_attribute 24, 1
  10              		.eabi_attribute 25, 1
  11              		.eabi_attribute 26, 1
  12              		.eabi_attribute 30, 1
  13              		.eabi_attribute 34, 1
  14              		.eabi_attribute 18, 4
  15              		.file	"electronic_throttle.c"
  16              		.text
  17              	.Ltext0:
  18              		.cfi_sections	.debug_frame
  19              		.file 1 "controller/actuators/electronic_throttle.c"
  20              		.section	.rodata.electronic_throttle_init.str1.4,"aMS",%progbits,1
  21              		.align	2
  22              	.LC0:
  23 0000 456C6563 		.ascii	"Electronic throttle init failed\000"
  23      74726F6E 
  23      69632074 
  23      68726F74 
  23      746C6520 
  24              		.section	.text.electronic_throttle_init,"ax",%progbits
  25              		.align	1
  26              		.global	electronic_throttle_init
  27              		.syntax unified
  28              		.thumb
  29              		.thumb_func
  31              	electronic_throttle_init:
  32              	.LVL0:
  33              	.LFB228:
   1:controller/actuators/electronic_throttle.c **** #include "electronic_throttle.h"
   2:controller/actuators/electronic_throttle.c **** 
   3:controller/actuators/electronic_throttle.c **** void electronic_throttle_init(electronic_throttle_s *etb, pid_t *pid, sensor_tps_s *sensor, dc_moto
   4:controller/actuators/electronic_throttle.c **** {
  34              		.loc 1 4 1 view -0
  35              		.cfi_startproc
  36              		@ args = 0, pretend = 0, frame = 0
  37              		@ frame_needed = 0, uses_anonymous_args = 0
  38              		.loc 1 4 1 is_stmt 0 view .LVU1
  39 0000 08B5     		push	{r3, lr}
  40              		.cfi_def_cfa_offset 8
  41              		.cfi_offset 3, -8
  42              		.cfi_offset 14, -4
   5:controller/actuators/electronic_throttle.c ****     if (etb == NULL || sensor == NULL || motor == NULL)
  43              		.loc 1 5 5 is_stmt 1 view .LVU2
  44              		.loc 1 5 8 is_stmt 0 view .LVU3
  45 0002 60B1     		cbz	r0, .L2
  46              		.loc 1 5 21 discriminator 1 view .LVU4
  47 0004 5AB1     		cbz	r2, .L2
  48              		.loc 1 5 39 discriminator 2 view .LVU5
  49 0006 53B1     		cbz	r3, .L2
ARM GAS  C:\Users\alireza\AppData\Local\Temp\ccmbkVlK.s 			page 2


   6:controller/actuators/electronic_throttle.c ****     {
   7:controller/actuators/electronic_throttle.c ****         log_error("Electronic throttle init failed");
   8:controller/actuators/electronic_throttle.c ****         return;
   9:controller/actuators/electronic_throttle.c ****     }
  10:controller/actuators/electronic_throttle.c ****     
  11:controller/actuators/electronic_throttle.c ****     etb->pid = pid;
  50              		.loc 1 11 5 is_stmt 1 view .LVU6
  51              		.loc 1 11 14 is_stmt 0 view .LVU7
  52 0008 8160     		str	r1, [r0, #8]
  12:controller/actuators/electronic_throttle.c ****     etb->sensor = sensor;
  53              		.loc 1 12 5 is_stmt 1 view .LVU8
  54              		.loc 1 12 17 is_stmt 0 view .LVU9
  55 000a C260     		str	r2, [r0, #12]
  13:controller/actuators/electronic_throttle.c ****     etb->motor = motor;
  56              		.loc 1 13 5 is_stmt 1 view .LVU10
  57              		.loc 1 13 16 is_stmt 0 view .LVU11
  58 000c 4360     		str	r3, [r0, #4]
  14:controller/actuators/electronic_throttle.c ****     etb->target_position = ELECTRONIC_THROTTLE_FAIL_SAFE_POSITION;
  59              		.loc 1 14 5 is_stmt 1 view .LVU12
  60              		.loc 1 14 26 is_stmt 0 view .LVU13
  61 000e 0023     		movs	r3, #0
  62              	.LVL1:
  63              		.loc 1 14 26 view .LVU14
  64 0010 0361     		str	r3, [r0, #16]	@ float
  15:controller/actuators/electronic_throttle.c **** 
  16:controller/actuators/electronic_throttle.c ****     etb->pid->limit_output_max = (float)255;
  65              		.loc 1 16 5 is_stmt 1 view .LVU15
  66              		.loc 1 16 32 is_stmt 0 view .LVU16
  67 0012 054B     		ldr	r3, .L6
  68 0014 4B61     		str	r3, [r1, #20]	@ float
  69              	.LVL2:
  17:controller/actuators/electronic_throttle.c ****     etb->pid->limit_output_min = (float)-255;
  70              		.loc 1 17 5 is_stmt 1 view .LVU17
  71              		.loc 1 17 8 is_stmt 0 view .LVU18
  72 0016 8368     		ldr	r3, [r0, #8]
  73              		.loc 1 17 32 view .LVU19
  74 0018 044A     		ldr	r2, .L6+4
  75              	.LVL3:
  76              		.loc 1 17 32 view .LVU20
  77 001a 1A61     		str	r2, [r3, #16]	@ float
  78              	.LVL4:
  79              	.L1:
  18:controller/actuators/electronic_throttle.c **** 
  19:controller/actuators/electronic_throttle.c **** }
  80              		.loc 1 19 1 view .LVU21
  81 001c 08BD     		pop	{r3, pc}
  82              	.LVL5:
  83              	.L2:
   7:controller/actuators/electronic_throttle.c ****         return;
  84              		.loc 1 7 9 is_stmt 1 view .LVU22
  85 001e 0448     		ldr	r0, .L6+8
  86              	.LVL6:
   7:controller/actuators/electronic_throttle.c ****         return;
  87              		.loc 1 7 9 is_stmt 0 view .LVU23
  88 0020 FFF7FEFF 		bl	log_error
  89              	.LVL7:
   8:controller/actuators/electronic_throttle.c ****     }
ARM GAS  C:\Users\alireza\AppData\Local\Temp\ccmbkVlK.s 			page 3


  90              		.loc 1 8 9 is_stmt 1 view .LVU24
  91 0024 FAE7     		b	.L1
  92              	.L7:
  93 0026 00BF     		.align	2
  94              	.L6:
  95 0028 00007F43 		.word	1132396544
  96 002c 00007FC3 		.word	-1015087104
  97 0030 00000000 		.word	.LC0
  98              		.cfi_endproc
  99              	.LFE228:
 101              		.section	.text.electronic_throttle_set,"ax",%progbits
 102              		.align	1
 103              		.global	electronic_throttle_set
 104              		.syntax unified
 105              		.thumb
 106              		.thumb_func
 108              	electronic_throttle_set:
 109              	.LVL8:
 110              	.LFB229:
  20:controller/actuators/electronic_throttle.c **** 
  21:controller/actuators/electronic_throttle.c **** void electronic_throttle_set(electronic_throttle_s *etb, percent_t position)
  22:controller/actuators/electronic_throttle.c **** {
 111              		.loc 1 22 1 view -0
 112              		.cfi_startproc
 113              		@ args = 0, pretend = 0, frame = 0
 114              		@ frame_needed = 0, uses_anonymous_args = 0
 115              		@ link register save eliminated.
  23:controller/actuators/electronic_throttle.c ****     if (!IS_IN_RANGE(position, (percent_t)0, (percent_t)100))
 116              		.loc 1 23 5 view .LVU26
 117              		.loc 1 23 8 is_stmt 0 view .LVU27
 118 0000 B5EEC00A 		vcmpe.f32	s0, #0
 119 0004 F1EE10FA 		vmrs	APSR_nzcv, FPSCR
 120 0008 06DB     		blt	.L9
 121              		.loc 1 23 9 discriminator 1 view .LVU28
 122 000a DFED067A 		vldr.32	s15, .L13
 123 000e B4EEE70A 		vcmpe.f32	s0, s15
 124 0012 F1EE10FA 		vmrs	APSR_nzcv, FPSCR
 125 0016 01D9     		bls	.L11
 126              	.L9:
  24:controller/actuators/electronic_throttle.c ****     {
  25:controller/actuators/electronic_throttle.c ****         etb->target_position = ELECTRONIC_THROTTLE_FAIL_SAFE_POSITION;
 127              		.loc 1 25 9 is_stmt 1 view .LVU29
 128              		.loc 1 25 30 is_stmt 0 view .LVU30
 129 0018 0023     		movs	r3, #0
 130 001a 0361     		str	r3, [r0, #16]	@ float
 131              	.L11:
  26:controller/actuators/electronic_throttle.c ****     }
  27:controller/actuators/electronic_throttle.c ****     etb->target_position = position;
 132              		.loc 1 27 5 is_stmt 1 view .LVU31
 133              		.loc 1 27 26 is_stmt 0 view .LVU32
 134 001c 80ED040A 		vstr.32	s0, [r0, #16]
  28:controller/actuators/electronic_throttle.c **** }
 135              		.loc 1 28 1 view .LVU33
 136 0020 7047     		bx	lr
 137              	.L14:
 138 0022 00BF     		.align	2
 139              	.L13:
ARM GAS  C:\Users\alireza\AppData\Local\Temp\ccmbkVlK.s 			page 4


 140 0024 0000C842 		.word	1120403456
 141              		.cfi_endproc
 142              	.LFE229:
 144              		.section	.rodata.electronic_throttle_update.str1.4,"aMS",%progbits,1
 145              		.align	2
 146              	.LC1:
 147 0000 456C6563 		.ascii	"Electronic throttle not initialized\000"
 147      74726F6E 
 147      69632074 
 147      68726F74 
 147      746C6520 
 148              		.section	.text.electronic_throttle_update,"ax",%progbits
 149              		.align	1
 150              		.global	electronic_throttle_update
 151              		.syntax unified
 152              		.thumb
 153              		.thumb_func
 155              	electronic_throttle_update:
 156              	.LVL9:
 157              	.LFB230:
  29:controller/actuators/electronic_throttle.c **** 
  30:controller/actuators/electronic_throttle.c **** void electronic_throttle_update(electronic_throttle_s *etb)
  31:controller/actuators/electronic_throttle.c **** {
 158              		.loc 1 31 1 is_stmt 1 view -0
 159              		.cfi_startproc
 160              		@ args = 0, pretend = 0, frame = 8
 161              		@ frame_needed = 0, uses_anonymous_args = 0
 162              		.loc 1 31 1 is_stmt 0 view .LVU35
 163 0000 30B5     		push	{r4, r5, lr}
 164              		.cfi_def_cfa_offset 12
 165              		.cfi_offset 4, -12
 166              		.cfi_offset 5, -8
 167              		.cfi_offset 14, -4
 168 0002 2DED028B 		vpush.64	{d8}
 169              		.cfi_def_cfa_offset 20
 170              		.cfi_offset 80, -20
 171              		.cfi_offset 81, -16
 172 0006 83B0     		sub	sp, sp, #12
 173              		.cfi_def_cfa_offset 32
  32:controller/actuators/electronic_throttle.c ****     if (etb == NULL || etb->pid == NULL || etb->sensor == NULL || etb->motor || NULL)
 174              		.loc 1 32 5 is_stmt 1 view .LVU36
 175              		.loc 1 32 8 is_stmt 0 view .LVU37
 176 0008 30B1     		cbz	r0, .L16
 177 000a 0446     		mov	r4, r0
 178              		.loc 1 32 27 discriminator 1 view .LVU38
 179 000c 8368     		ldr	r3, [r0, #8]
 180              		.loc 1 32 21 discriminator 1 view .LVU39
 181 000e 1BB1     		cbz	r3, .L16
 182              		.loc 1 32 47 discriminator 2 view .LVU40
 183 0010 C068     		ldr	r0, [r0, #12]
 184              	.LVL10:
 185              		.loc 1 32 41 discriminator 2 view .LVU41
 186 0012 08B1     		cbz	r0, .L16
 187              		.loc 1 32 70 discriminator 3 view .LVU42
 188 0014 6368     		ldr	r3, [r4, #4]
 189              		.loc 1 32 78 discriminator 3 view .LVU43
 190 0016 33B1     		cbz	r3, .L17
ARM GAS  C:\Users\alireza\AppData\Local\Temp\ccmbkVlK.s 			page 5


 191              	.LVL11:
 192              	.L16:
  33:controller/actuators/electronic_throttle.c ****     {
  34:controller/actuators/electronic_throttle.c ****         log_error("Electronic throttle not initialized");
 193              		.loc 1 34 9 is_stmt 1 view .LVU44
 194 0018 1248     		ldr	r0, .L20
 195 001a FFF7FEFF 		bl	log_error
 196              	.LVL12:
  35:controller/actuators/electronic_throttle.c ****         return;
 197              		.loc 1 35 9 view .LVU45
 198              	.L15:
  36:controller/actuators/electronic_throttle.c ****     }
  37:controller/actuators/electronic_throttle.c ****     percent_t postion = sensor_tps_get(etb->sensor);
  38:controller/actuators/electronic_throttle.c ****     percent_t motor_effort = pid_compute(etb->pid, get_time_us(), postion);
  39:controller/actuators/electronic_throttle.c ****     dc_motor_direction_e dir = motor_effort > 0 ? MD_FORWARD : MD_REVERSE;
  40:controller/actuators/electronic_throttle.c ****     dc_motor_set(etb->motor, dir ,  ABS((uint8_t)motor_effort));
  41:controller/actuators/electronic_throttle.c **** }
 199              		.loc 1 41 1 is_stmt 0 view .LVU46
 200 001e 03B0     		add	sp, sp, #12
 201              		.cfi_remember_state
 202              		.cfi_def_cfa_offset 20
 203              		@ sp needed
 204 0020 BDEC028B 		vldm	sp!, {d8}
 205              		.cfi_restore 80
 206              		.cfi_restore 81
 207              		.cfi_def_cfa_offset 12
 208 0024 30BD     		pop	{r4, r5, pc}
 209              	.LVL13:
 210              	.L17:
 211              		.cfi_restore_state
  37:controller/actuators/electronic_throttle.c ****     percent_t motor_effort = pid_compute(etb->pid, get_time_us(), postion);
 212              		.loc 1 37 5 is_stmt 1 view .LVU47
  37:controller/actuators/electronic_throttle.c ****     percent_t motor_effort = pid_compute(etb->pid, get_time_us(), postion);
 213              		.loc 1 37 25 is_stmt 0 view .LVU48
 214 0026 FFF7FEFF 		bl	sensor_tps_get
 215              	.LVL14:
 216 002a B0EE408A 		vmov.f32	s16, s0
 217              	.LVL15:
  38:controller/actuators/electronic_throttle.c ****     dc_motor_direction_e dir = motor_effort > 0 ? MD_FORWARD : MD_REVERSE;
 218              		.loc 1 38 5 is_stmt 1 view .LVU49
  38:controller/actuators/electronic_throttle.c ****     dc_motor_direction_e dir = motor_effort > 0 ? MD_FORWARD : MD_REVERSE;
 219              		.loc 1 38 30 is_stmt 0 view .LVU50
 220 002e A568     		ldr	r5, [r4, #8]
 221 0030 FFF7FEFF 		bl	get_time_us
 222              	.LVL16:
  38:controller/actuators/electronic_throttle.c ****     dc_motor_direction_e dir = motor_effort > 0 ? MD_FORWARD : MD_REVERSE;
 223              		.loc 1 38 30 view .LVU51
 224 0034 0146     		mov	r1, r0
  38:controller/actuators/electronic_throttle.c ****     dc_motor_direction_e dir = motor_effort > 0 ? MD_FORWARD : MD_REVERSE;
 225              		.loc 1 38 30 discriminator 1 view .LVU52
 226 0036 B0EE480A 		vmov.f32	s0, s16
 227 003a 2846     		mov	r0, r5
 228 003c FFF7FEFF 		bl	pid_compute
 229              	.LVL17:
  39:controller/actuators/electronic_throttle.c ****     dc_motor_set(etb->motor, dir ,  ABS((uint8_t)motor_effort));
 230              		.loc 1 39 5 is_stmt 1 view .LVU53
  39:controller/actuators/electronic_throttle.c ****     dc_motor_set(etb->motor, dir ,  ABS((uint8_t)motor_effort));
ARM GAS  C:\Users\alireza\AppData\Local\Temp\ccmbkVlK.s 			page 6


 231              		.loc 1 39 45 is_stmt 0 view .LVU54
 232 0040 B5EEC00A 		vcmpe.f32	s0, #0
 233 0044 F1EE10FA 		vmrs	APSR_nzcv, FPSCR
 234              	.LVL18:
  40:controller/actuators/electronic_throttle.c **** }
 235              		.loc 1 40 5 is_stmt 1 view .LVU55
  40:controller/actuators/electronic_throttle.c **** }
 236              		.loc 1 40 37 is_stmt 0 view .LVU56
 237 0048 FCEEC07A 		vcvt.u32.f32	s15, s0
 238 004c CDED017A 		vstr.32	s15, [sp, #4]	@ int
  40:controller/actuators/electronic_throttle.c **** }
 239              		.loc 1 40 5 view .LVU57
 240 0050 9DF80420 		ldrb	r2, [sp, #4]	@ zero_extendqisi2
 241 0054 D4BF     		ite	le
 242 0056 0121     		movle	r1, #1
 243 0058 0021     		movgt	r1, #0
 244 005a 6068     		ldr	r0, [r4, #4]
 245 005c FFF7FEFF 		bl	dc_motor_set
 246              	.LVL19:
  40:controller/actuators/electronic_throttle.c **** }
 247              		.loc 1 40 5 view .LVU58
 248 0060 DDE7     		b	.L15
 249              	.L21:
 250 0062 00BF     		.align	2
 251              	.L20:
 252 0064 00000000 		.word	.LC1
 253              		.cfi_endproc
 254              	.LFE230:
 256              		.text
 257              	.Letext0:
 258              		.file 2 "C:/Users/alireza/AppData/Roaming/Code/User/globalStorage/bmd.stm32-for-vscode/@xpack-dev-
 259              		.file 3 "C:/Users/alireza/AppData/Roaming/Code/User/globalStorage/bmd.stm32-for-vscode/@xpack-dev-
 260              		.file 4 "Drivers/CMSIS/Device/ST/STM32F4xx/Include/stm32f401xc.h"
 261              		.file 5 "Drivers/STM32F4xx_HAL_Driver/Inc/stm32f4xx_hal_def.h"
 262              		.file 6 "Drivers/STM32F4xx_HAL_Driver/Inc/stm32f4xx_hal_dma.h"
 263              		.file 7 "Drivers/STM32F4xx_HAL_Driver/Inc/stm32f4xx_hal_tim.h"
 264              		.file 8 "controller/types.h"
 265              		.file 9 "controller/actuators/dc_motors.h"
 266              		.file 10 "controller/utils/pid.h"
 267              		.file 11 "controller/IO/analog_inputs.h"
 268              		.file 12 "controller/IO/sensors/tps.h"
 269              		.file 13 "controller/actuators/electronic_throttle.h"
 270              		.file 14 "controller/utils/error_handling.h"
 271              		.file 15 "controller/utils/timing.h"
ARM GAS  C:\Users\alireza\AppData\Local\Temp\ccmbkVlK.s 			page 7


DEFINED SYMBOLS
                            *ABS*:00000000 electronic_throttle.c
C:\Users\alireza\AppData\Local\Temp\ccmbkVlK.s:21     .rodata.electronic_throttle_init.str1.4:00000000 $d
C:\Users\alireza\AppData\Local\Temp\ccmbkVlK.s:25     .text.electronic_throttle_init:00000000 $t
C:\Users\alireza\AppData\Local\Temp\ccmbkVlK.s:31     .text.electronic_throttle_init:00000000 electronic_throttle_init
C:\Users\alireza\AppData\Local\Temp\ccmbkVlK.s:95     .text.electronic_throttle_init:00000028 $d
C:\Users\alireza\AppData\Local\Temp\ccmbkVlK.s:102    .text.electronic_throttle_set:00000000 $t
C:\Users\alireza\AppData\Local\Temp\ccmbkVlK.s:108    .text.electronic_throttle_set:00000000 electronic_throttle_set
C:\Users\alireza\AppData\Local\Temp\ccmbkVlK.s:140    .text.electronic_throttle_set:00000024 $d
C:\Users\alireza\AppData\Local\Temp\ccmbkVlK.s:145    .rodata.electronic_throttle_update.str1.4:00000000 $d
C:\Users\alireza\AppData\Local\Temp\ccmbkVlK.s:149    .text.electronic_throttle_update:00000000 $t
C:\Users\alireza\AppData\Local\Temp\ccmbkVlK.s:155    .text.electronic_throttle_update:00000000 electronic_throttle_update
C:\Users\alireza\AppData\Local\Temp\ccmbkVlK.s:252    .text.electronic_throttle_update:00000064 $d

UNDEFINED SYMBOLS
log_error
sensor_tps_get
get_time_us
pid_compute
dc_motor_set
