ARM GAS  C:\Users\alireza\AppData\Local\Temp\ccABXiOc.s 			page 1


   1              		.cpu cortex-m4
   2              		.arch armv7e-m
   3              		.fpu fpv4-sp-d16
   4              		.eabi_attribute 27, 1
   5              		.eabi_attribute 28, 1
   6              		.eabi_attribute 20, 1
   7              		.eabi_attribute 21, 1
   8              		.eabi_attribute 23, 3
   9              		.eabi_attribute 24, 1
  10              		.eabi_attribute 25, 1
  11              		.eabi_attribute 26, 1
  12              		.eabi_attribute 30, 1
  13              		.eabi_attribute 34, 1
  14              		.eabi_attribute 18, 4
  15              		.file	"freertos.c"
  16              		.text
  17              	.Ltext0:
  18              		.cfi_sections	.debug_frame
  19              		.file 1 "Core/Src/freertos.c"
  20              		.section	.text.StartDefaultTask,"ax",%progbits
  21              		.align	1
  22              		.global	StartDefaultTask
  23              		.syntax unified
  24              		.thumb
  25              		.thumb_func
  27              	StartDefaultTask:
  28              	.LVL0:
  29              	.LFB233:
   1:Core/Src/freertos.c **** /* USER CODE BEGIN Header */
   2:Core/Src/freertos.c **** /**
   3:Core/Src/freertos.c ****   ******************************************************************************
   4:Core/Src/freertos.c ****   * File Name          : freertos.c
   5:Core/Src/freertos.c ****   * Description        : Code for freertos applications
   6:Core/Src/freertos.c ****   ******************************************************************************
   7:Core/Src/freertos.c ****   * @attention
   8:Core/Src/freertos.c ****   *
   9:Core/Src/freertos.c ****   * Copyright (c) 2025 STMicroelectronics.
  10:Core/Src/freertos.c ****   * All rights reserved.
  11:Core/Src/freertos.c ****   *
  12:Core/Src/freertos.c ****   * This software is licensed under terms that can be found in the LICENSE file
  13:Core/Src/freertos.c ****   * in the root directory of this software component.
  14:Core/Src/freertos.c ****   * If no LICENSE file comes with this software, it is provided AS-IS.
  15:Core/Src/freertos.c ****   *
  16:Core/Src/freertos.c ****   ******************************************************************************
  17:Core/Src/freertos.c ****   */
  18:Core/Src/freertos.c **** /* USER CODE END Header */
  19:Core/Src/freertos.c **** 
  20:Core/Src/freertos.c **** /* Includes ------------------------------------------------------------------*/
  21:Core/Src/freertos.c **** #include "FreeRTOS.h"
  22:Core/Src/freertos.c **** #include "task.h"
  23:Core/Src/freertos.c **** #include "main.h"
  24:Core/Src/freertos.c **** #include "cmsis_os.h"
  25:Core/Src/freertos.c **** 
  26:Core/Src/freertos.c **** /* Private includes ----------------------------------------------------------*/
  27:Core/Src/freertos.c **** /* USER CODE BEGIN Includes */
  28:Core/Src/freertos.c **** #include "controller.h"
  29:Core/Src/freertos.c **** #include "trigger_simulator.h"
ARM GAS  C:\Users\alireza\AppData\Local\Temp\ccABXiOc.s 			page 2


  30:Core/Src/freertos.c **** /* USER CODE END Includes */
  31:Core/Src/freertos.c **** 
  32:Core/Src/freertos.c **** /* Private typedef -----------------------------------------------------------*/
  33:Core/Src/freertos.c **** /* USER CODE BEGIN PTD */
  34:Core/Src/freertos.c **** 
  35:Core/Src/freertos.c **** /* USER CODE END PTD */
  36:Core/Src/freertos.c **** 
  37:Core/Src/freertos.c **** /* Private define ------------------------------------------------------------*/
  38:Core/Src/freertos.c **** /* USER CODE BEGIN PD */
  39:Core/Src/freertos.c **** 
  40:Core/Src/freertos.c **** /* USER CODE END PD */
  41:Core/Src/freertos.c **** 
  42:Core/Src/freertos.c **** /* Private macro -------------------------------------------------------------*/
  43:Core/Src/freertos.c **** /* USER CODE BEGIN PM */
  44:Core/Src/freertos.c **** 
  45:Core/Src/freertos.c **** /* USER CODE END PM */
  46:Core/Src/freertos.c **** 
  47:Core/Src/freertos.c **** /* Private variables ---------------------------------------------------------*/
  48:Core/Src/freertos.c **** /* USER CODE BEGIN Variables */
  49:Core/Src/freertos.c **** rpm_t simulated_rpm = 1000;
  50:Core/Src/freertos.c **** table_2d_t test_table = {0};
  51:Core/Src/freertos.c **** float table_value = 0.0f;
  52:Core/Src/freertos.c **** /* USER CODE END Variables */
  53:Core/Src/freertos.c **** /* Definitions for defaultTask */
  54:Core/Src/freertos.c **** osThreadId_t defaultTaskHandle;
  55:Core/Src/freertos.c **** const osThreadAttr_t defaultTask_attributes = {
  56:Core/Src/freertos.c ****   .name = "defaultTask",
  57:Core/Src/freertos.c ****   .stack_size = 128 * 4,
  58:Core/Src/freertos.c ****   .priority = (osPriority_t) osPriorityNormal,
  59:Core/Src/freertos.c **** };
  60:Core/Src/freertos.c **** /* Definitions for trig_sim */
  61:Core/Src/freertos.c **** osThreadId_t trig_simHandle;
  62:Core/Src/freertos.c **** const osThreadAttr_t trig_sim_attributes = {
  63:Core/Src/freertos.c ****   .name = "trig_sim",
  64:Core/Src/freertos.c ****   .stack_size = 128 * 4,
  65:Core/Src/freertos.c ****   .priority = (osPriority_t) osPriorityLow,
  66:Core/Src/freertos.c **** };
  67:Core/Src/freertos.c **** /* Definitions for fuel_task */
  68:Core/Src/freertos.c **** osThreadId_t fuel_taskHandle;
  69:Core/Src/freertos.c **** const osThreadAttr_t fuel_task_attributes = {
  70:Core/Src/freertos.c ****   .name = "fuel_task",
  71:Core/Src/freertos.c ****   .stack_size = 128 * 4,
  72:Core/Src/freertos.c ****   .priority = (osPriority_t) osPriorityNormal,
  73:Core/Src/freertos.c **** };
  74:Core/Src/freertos.c **** /* Definitions for init_task */
  75:Core/Src/freertos.c **** osThreadId_t init_taskHandle;
  76:Core/Src/freertos.c **** const osThreadAttr_t init_task_attributes = {
  77:Core/Src/freertos.c ****   .name = "init_task",
  78:Core/Src/freertos.c ****   .stack_size = 128 * 4,
  79:Core/Src/freertos.c ****   .priority = (osPriority_t) osPriorityNormal,
  80:Core/Src/freertos.c **** };
  81:Core/Src/freertos.c **** /* Definitions for engine_flags */
  82:Core/Src/freertos.c **** osEventFlagsId_t engine_flagsHandle;
  83:Core/Src/freertos.c **** const osEventFlagsAttr_t engine_flags_attributes = {
  84:Core/Src/freertos.c ****   .name = "engine_flags"
  85:Core/Src/freertos.c **** };
  86:Core/Src/freertos.c **** 
ARM GAS  C:\Users\alireza\AppData\Local\Temp\ccABXiOc.s 			page 3


  87:Core/Src/freertos.c **** /* Private function prototypes -----------------------------------------------*/
  88:Core/Src/freertos.c **** /* USER CODE BEGIN FunctionPrototypes */
  89:Core/Src/freertos.c **** 
  90:Core/Src/freertos.c **** void toggle_led();
  91:Core/Src/freertos.c **** 
  92:Core/Src/freertos.c **** /* USER CODE END FunctionPrototypes */
  93:Core/Src/freertos.c **** 
  94:Core/Src/freertos.c **** void StartDefaultTask(void *argument);
  95:Core/Src/freertos.c **** void trigger_simulator_task(void *argument);
  96:Core/Src/freertos.c **** void start_fuel_task(void *argument);
  97:Core/Src/freertos.c **** void controller_init_task(void *argument);
  98:Core/Src/freertos.c **** 
  99:Core/Src/freertos.c **** extern void MX_USB_DEVICE_Init(void);
 100:Core/Src/freertos.c **** void MX_FREERTOS_Init(void); /* (MISRA C 2004 rule 8.1) */
 101:Core/Src/freertos.c **** 
 102:Core/Src/freertos.c **** /**
 103:Core/Src/freertos.c ****   * @brief  FreeRTOS initialization
 104:Core/Src/freertos.c ****   * @param  None
 105:Core/Src/freertos.c ****   * @retval None
 106:Core/Src/freertos.c ****   */
 107:Core/Src/freertos.c **** void MX_FREERTOS_Init(void) {
 108:Core/Src/freertos.c ****   /* USER CODE BEGIN Init */
 109:Core/Src/freertos.c **** 
 110:Core/Src/freertos.c ****   /* USER CODE END Init */
 111:Core/Src/freertos.c **** 
 112:Core/Src/freertos.c ****   /* USER CODE BEGIN RTOS_MUTEX */
 113:Core/Src/freertos.c ****   /* add mutexes, ... */
 114:Core/Src/freertos.c ****   /* USER CODE END RTOS_MUTEX */
 115:Core/Src/freertos.c **** 
 116:Core/Src/freertos.c ****   /* USER CODE BEGIN RTOS_SEMAPHORES */
 117:Core/Src/freertos.c ****   /* add semaphores, ... */
 118:Core/Src/freertos.c ****   /* USER CODE END RTOS_SEMAPHORES */
 119:Core/Src/freertos.c **** 
 120:Core/Src/freertos.c ****   /* USER CODE BEGIN RTOS_TIMERS */
 121:Core/Src/freertos.c ****   /* start timers, add new ones, ... */
 122:Core/Src/freertos.c ****   /* USER CODE END RTOS_TIMERS */
 123:Core/Src/freertos.c **** 
 124:Core/Src/freertos.c ****   /* USER CODE BEGIN RTOS_QUEUES */
 125:Core/Src/freertos.c ****   /* add queues, ... */
 126:Core/Src/freertos.c ****   /* USER CODE END RTOS_QUEUES */
 127:Core/Src/freertos.c **** 
 128:Core/Src/freertos.c ****   /* Create the thread(s) */
 129:Core/Src/freertos.c ****   /* creation of defaultTask */
 130:Core/Src/freertos.c ****   defaultTaskHandle = osThreadNew(StartDefaultTask, NULL, &defaultTask_attributes);
 131:Core/Src/freertos.c **** 
 132:Core/Src/freertos.c ****   /* creation of trig_sim */
 133:Core/Src/freertos.c ****   trig_simHandle = osThreadNew(trigger_simulator_task, NULL, &trig_sim_attributes);
 134:Core/Src/freertos.c **** 
 135:Core/Src/freertos.c ****   /* creation of fuel_task */
 136:Core/Src/freertos.c ****   fuel_taskHandle = osThreadNew(start_fuel_task, NULL, &fuel_task_attributes);
 137:Core/Src/freertos.c **** 
 138:Core/Src/freertos.c ****   /* creation of init_task */
 139:Core/Src/freertos.c ****   init_taskHandle = osThreadNew(controller_init_task, NULL, &init_task_attributes);
 140:Core/Src/freertos.c **** 
 141:Core/Src/freertos.c ****   /* USER CODE BEGIN RTOS_THREADS */
 142:Core/Src/freertos.c ****   /* add threads, ... */
 143:Core/Src/freertos.c ****   /* USER CODE END RTOS_THREADS */
ARM GAS  C:\Users\alireza\AppData\Local\Temp\ccABXiOc.s 			page 4


 144:Core/Src/freertos.c **** 
 145:Core/Src/freertos.c ****   /* Create the event(s) */
 146:Core/Src/freertos.c ****   /* creation of engine_flags */
 147:Core/Src/freertos.c ****   engine_flagsHandle = osEventFlagsNew(&engine_flags_attributes);
 148:Core/Src/freertos.c **** 
 149:Core/Src/freertos.c ****   /* USER CODE BEGIN RTOS_EVENTS */
 150:Core/Src/freertos.c ****   /* add events, ... */
 151:Core/Src/freertos.c ****   /* USER CODE END RTOS_EVENTS */
 152:Core/Src/freertos.c **** 
 153:Core/Src/freertos.c **** }
 154:Core/Src/freertos.c **** 
 155:Core/Src/freertos.c **** /* USER CODE BEGIN Header_StartDefaultTask */
 156:Core/Src/freertos.c **** /**
 157:Core/Src/freertos.c ****   * @brief  Function implementing the defaultTask thread.
 158:Core/Src/freertos.c ****   * @param  argument: Not used
 159:Core/Src/freertos.c ****   * @retval None
 160:Core/Src/freertos.c ****   */
 161:Core/Src/freertos.c **** /* USER CODE END Header_StartDefaultTask */
 162:Core/Src/freertos.c **** void StartDefaultTask(void *argument)
 163:Core/Src/freertos.c **** {
  30              		.loc 1 163 1 view -0
  31              		.cfi_startproc
  32              		@ Volatile: function does not return.
  33              		@ args = 0, pretend = 0, frame = 0
  34              		@ frame_needed = 0, uses_anonymous_args = 0
  35              		.loc 1 163 1 is_stmt 0 view .LVU1
  36 0000 08B5     		push	{r3, lr}
  37              		.cfi_def_cfa_offset 8
  38              		.cfi_offset 3, -8
  39              		.cfi_offset 14, -4
 164:Core/Src/freertos.c ****   /* init code for USB_DEVICE */
 165:Core/Src/freertos.c ****   MX_USB_DEVICE_Init();
  40              		.loc 1 165 3 is_stmt 1 view .LVU2
  41 0002 FFF7FEFF 		bl	MX_USB_DEVICE_Init
  42              	.LVL1:
 166:Core/Src/freertos.c ****   /* USER CODE BEGIN StartDefaultTask */
 167:Core/Src/freertos.c **** 
 168:Core/Src/freertos.c ****   osDelay(100);
  43              		.loc 1 168 3 view .LVU3
  44 0006 6420     		movs	r0, #100
  45 0008 FFF7FEFF 		bl	osDelay
  46              	.LVL2:
  47              	.L2:
 169:Core/Src/freertos.c ****   
 170:Core/Src/freertos.c ****   /* Infinite loop */
 171:Core/Src/freertos.c ****   for(;;)
  48              		.loc 1 171 3 view .LVU4
 172:Core/Src/freertos.c ****   {
 173:Core/Src/freertos.c **** 
 174:Core/Src/freertos.c ****     osDelay(1);
  49              		.loc 1 174 5 discriminator 1 view .LVU5
  50 000c 0120     		movs	r0, #1
  51 000e FFF7FEFF 		bl	osDelay
  52              	.LVL3:
 171:Core/Src/freertos.c ****   {
  53              		.loc 1 171 3 view .LVU6
  54 0012 FBE7     		b	.L2
ARM GAS  C:\Users\alireza\AppData\Local\Temp\ccABXiOc.s 			page 5


  55              		.cfi_endproc
  56              	.LFE233:
  58              		.section	.text.start_fuel_task,"ax",%progbits
  59              		.align	1
  60              		.global	start_fuel_task
  61              		.syntax unified
  62              		.thumb
  63              		.thumb_func
  65              	start_fuel_task:
  66              	.LFB235:
 175:Core/Src/freertos.c ****   }
 176:Core/Src/freertos.c ****   /* USER CODE END StartDefaultTask */
 177:Core/Src/freertos.c **** }
 178:Core/Src/freertos.c **** 
 179:Core/Src/freertos.c **** /* USER CODE BEGIN Header_trigger_simulator_task */
 180:Core/Src/freertos.c **** /**
 181:Core/Src/freertos.c **** * @brief Function implementing the trig_sim thread.
 182:Core/Src/freertos.c **** * @param argument: Not used
 183:Core/Src/freertos.c **** * @retval None
 184:Core/Src/freertos.c **** */
 185:Core/Src/freertos.c **** /* USER CODE END Header_trigger_simulator_task */
 186:Core/Src/freertos.c **** void trigger_simulator_task(void *argument)
 187:Core/Src/freertos.c **** {
 188:Core/Src/freertos.c ****   /* USER CODE BEGIN trigger_simulator_task */
 189:Core/Src/freertos.c ****   trigger_simulator_init(60, 2, trigger_tooth_handle);
 190:Core/Src/freertos.c ****   /* Infinite loop */
 191:Core/Src/freertos.c ****   for(;;)
 192:Core/Src/freertos.c ****   {
 193:Core/Src/freertos.c ****     trigger_simulator_update(simulated_rpm);
 194:Core/Src/freertos.c ****     osDelay(1);
 195:Core/Src/freertos.c ****     
 196:Core/Src/freertos.c ****   }
 197:Core/Src/freertos.c ****   /* USER CODE END trigger_simulator_task */
 198:Core/Src/freertos.c **** }
 199:Core/Src/freertos.c **** 
 200:Core/Src/freertos.c **** /* USER CODE BEGIN Header_start_fuel_task */
 201:Core/Src/freertos.c **** /**
 202:Core/Src/freertos.c **** * @brief Function implementing the fuel_task thread.
 203:Core/Src/freertos.c **** * @param argument: Not used
 204:Core/Src/freertos.c **** * @retval None
 205:Core/Src/freertos.c **** */
 206:Core/Src/freertos.c **** /* USER CODE END Header_start_fuel_task */
 207:Core/Src/freertos.c **** void start_fuel_task(void *argument)
 208:Core/Src/freertos.c **** {
  67              		.loc 1 208 1 view -0
  68              		.cfi_startproc
  69              		@ Volatile: function does not return.
  70              		@ args = 0, pretend = 0, frame = 0
  71              		@ frame_needed = 0, uses_anonymous_args = 0
  72              	.LVL4:
  73              		.loc 1 208 1 is_stmt 0 view .LVU8
  74 0000 08B5     		push	{r3, lr}
  75              		.cfi_def_cfa_offset 8
  76              		.cfi_offset 3, -8
  77              		.cfi_offset 14, -4
  78              	.LVL5:
  79              	.L5:
ARM GAS  C:\Users\alireza\AppData\Local\Temp\ccABXiOc.s 			page 6


 209:Core/Src/freertos.c ****   /* USER CODE BEGIN start_fuel_task */
 210:Core/Src/freertos.c **** 
 211:Core/Src/freertos.c **** 
 212:Core/Src/freertos.c ****   /* Infinite loop */
 213:Core/Src/freertos.c ****   for(;;)
  80              		.loc 1 213 3 is_stmt 1 view .LVU9
 214:Core/Src/freertos.c ****   {
 215:Core/Src/freertos.c ****     osDelay(1);
  81              		.loc 1 215 5 discriminator 1 view .LVU10
  82 0002 0120     		movs	r0, #1
  83 0004 FFF7FEFF 		bl	osDelay
  84              	.LVL6:
 213:Core/Src/freertos.c ****   {
  85              		.loc 1 213 3 view .LVU11
  86 0008 FBE7     		b	.L5
  87              		.cfi_endproc
  88              	.LFE235:
  90              		.section	.text.trigger_simulator_task,"ax",%progbits
  91              		.align	1
  92              		.global	trigger_simulator_task
  93              		.syntax unified
  94              		.thumb
  95              		.thumb_func
  97              	trigger_simulator_task:
  98              	.LVL7:
  99              	.LFB234:
 187:Core/Src/freertos.c ****   /* USER CODE BEGIN trigger_simulator_task */
 100              		.loc 1 187 1 view -0
 101              		.cfi_startproc
 102              		@ Volatile: function does not return.
 103              		@ args = 0, pretend = 0, frame = 0
 104              		@ frame_needed = 0, uses_anonymous_args = 0
 187:Core/Src/freertos.c ****   /* USER CODE BEGIN trigger_simulator_task */
 105              		.loc 1 187 1 is_stmt 0 view .LVU13
 106 0000 08B5     		push	{r3, lr}
 107              		.cfi_def_cfa_offset 8
 108              		.cfi_offset 3, -8
 109              		.cfi_offset 14, -4
 189:Core/Src/freertos.c ****   /* Infinite loop */
 110              		.loc 1 189 3 is_stmt 1 view .LVU14
 111 0002 074A     		ldr	r2, .L10
 112 0004 0221     		movs	r1, #2
 113 0006 3C20     		movs	r0, #60
 114              	.LVL8:
 189:Core/Src/freertos.c ****   /* Infinite loop */
 115              		.loc 1 189 3 is_stmt 0 view .LVU15
 116 0008 FFF7FEFF 		bl	trigger_simulator_init
 117              	.LVL9:
 118              	.L8:
 191:Core/Src/freertos.c ****   {
 119              		.loc 1 191 3 is_stmt 1 view .LVU16
 193:Core/Src/freertos.c ****     osDelay(1);
 120              		.loc 1 193 5 view .LVU17
 121 000c 054B     		ldr	r3, .L10+4
 122 000e 93ED000A 		vldr.32	s0, [r3]
 123 0012 FFF7FEFF 		bl	trigger_simulator_update
 124              	.LVL10:
ARM GAS  C:\Users\alireza\AppData\Local\Temp\ccABXiOc.s 			page 7


 194:Core/Src/freertos.c ****     
 125              		.loc 1 194 5 discriminator 1 view .LVU18
 126 0016 0120     		movs	r0, #1
 127 0018 FFF7FEFF 		bl	osDelay
 128              	.LVL11:
 191:Core/Src/freertos.c ****   {
 129              		.loc 1 191 3 view .LVU19
 130 001c F6E7     		b	.L8
 131              	.L11:
 132 001e 00BF     		.align	2
 133              	.L10:
 134 0020 00000000 		.word	trigger_tooth_handle
 135 0024 00000000 		.word	simulated_rpm
 136              		.cfi_endproc
 137              	.LFE234:
 139              		.section	.text.controller_init_task,"ax",%progbits
 140              		.align	1
 141              		.global	controller_init_task
 142              		.syntax unified
 143              		.thumb
 144              		.thumb_func
 146              	controller_init_task:
 147              	.LVL12:
 148              	.LFB236:
 216:Core/Src/freertos.c ****   }
 217:Core/Src/freertos.c ****   /* USER CODE END start_fuel_task */
 218:Core/Src/freertos.c **** }
 219:Core/Src/freertos.c **** 
 220:Core/Src/freertos.c **** /* USER CODE BEGIN Header_controller_init_task */
 221:Core/Src/freertos.c **** /**
 222:Core/Src/freertos.c **** * @brief Function implementing the init_task thread.
 223:Core/Src/freertos.c **** * @param argument: Not used
 224:Core/Src/freertos.c **** * @retval None
 225:Core/Src/freertos.c **** */
 226:Core/Src/freertos.c **** /* USER CODE END Header_controller_init_task */
 227:Core/Src/freertos.c **** void controller_init_task(void *argument)
 228:Core/Src/freertos.c **** {
 149              		.loc 1 228 1 view -0
 150              		.cfi_startproc
 151              		@ args = 0, pretend = 0, frame = 0
 152              		@ frame_needed = 0, uses_anonymous_args = 0
 153              		.loc 1 228 1 is_stmt 0 view .LVU21
 154 0000 08B5     		push	{r3, lr}
 155              		.cfi_def_cfa_offset 8
 156              		.cfi_offset 3, -8
 157              		.cfi_offset 14, -4
 229:Core/Src/freertos.c ****   /* USER CODE BEGIN controller_init_task */
 230:Core/Src/freertos.c **** 
 231:Core/Src/freertos.c ****   controller_init(engine_flagsHandle);
 158              		.loc 1 231 3 is_stmt 1 view .LVU22
 159 0002 334B     		ldr	r3, .L26
 160 0004 1868     		ldr	r0, [r3]
 161              	.LVL13:
 162              		.loc 1 231 3 is_stmt 0 view .LVU23
 163 0006 FFF7FEFF 		bl	controller_init
 164              	.LVL14:
 232:Core/Src/freertos.c **** 
ARM GAS  C:\Users\alireza\AppData\Local\Temp\ccABXiOc.s 			page 8


 233:Core/Src/freertos.c **** 
 234:Core/Src/freertos.c ****   for (size_t i = 0; i < (sizeof(test_table.x_bins) / sizeof(test_table.x_bins[0])); i++)
 165              		.loc 1 234 3 is_stmt 1 view .LVU24
 166              	.LBB2:
 167              		.loc 1 234 8 view .LVU25
 168              		.loc 1 234 15 is_stmt 0 view .LVU26
 169 000a 0022     		movs	r2, #0
 170              		.loc 1 234 3 view .LVU27
 171 000c 0EE0     		b	.L13
 172              	.LVL15:
 173              	.L14:
 235:Core/Src/freertos.c ****   {
 236:Core/Src/freertos.c ****     test_table.x_bins[i] = i * 100;  // Example values
 174              		.loc 1 236 5 is_stmt 1 view .LVU28
 175              		.loc 1 236 30 is_stmt 0 view .LVU29
 176 000e 6423     		movs	r3, #100
 177 0010 02FB03F3 		mul	r3, r2, r3
 178              		.loc 1 236 26 view .LVU30
 179 0014 02F58070 		add	r0, r2, #256
 180 0018 2E49     		ldr	r1, .L26+4
 181 001a 01EB8001 		add	r1, r1, r0, lsl #2
 182 001e 07EE903A 		vmov	s15, r3	@ int
 183 0022 F8EE677A 		vcvt.f32.u32	s15, s15
 184 0026 C1ED007A 		vstr.32	s15, [r1]
 234:Core/Src/freertos.c ****   {
 185              		.loc 1 234 87 is_stmt 1 discriminator 3 view .LVU31
 186 002a 0132     		adds	r2, r2, #1
 187              	.LVL16:
 188              	.L13:
 234:Core/Src/freertos.c ****   {
 189              		.loc 1 234 24 discriminator 1 view .LVU32
 190 002c 0F2A     		cmp	r2, #15
 191 002e EED9     		bls	.L14
 192              	.LBE2:
 193              	.LBB3:
 237:Core/Src/freertos.c ****   }
 238:Core/Src/freertos.c ****   for (size_t i = 0; i < (sizeof(test_table.y_bins) / sizeof(test_table.y_bins[0])); i++)
 194              		.loc 1 238 15 is_stmt 0 view .LVU33
 195 0030 0023     		movs	r3, #0
 196 0032 0EE0     		b	.L15
 197              	.LVL17:
 198              	.L16:
 239:Core/Src/freertos.c ****   {
 240:Core/Src/freertos.c ****     test_table.y_bins[i] = i * 10;  // Example values
 199              		.loc 1 240 5 is_stmt 1 view .LVU34
 200              		.loc 1 240 30 is_stmt 0 view .LVU35
 201 0034 03EB8302 		add	r2, r3, r3, lsl #2
 202 0038 5200     		lsls	r2, r2, #1
 203              		.loc 1 240 26 view .LVU36
 204 003a 03F58870 		add	r0, r3, #272
 205 003e 2549     		ldr	r1, .L26+4
 206 0040 01EB8001 		add	r1, r1, r0, lsl #2
 207 0044 07EE902A 		vmov	s15, r2	@ int
 208 0048 F8EE677A 		vcvt.f32.u32	s15, s15
 209 004c C1ED007A 		vstr.32	s15, [r1]
 238:Core/Src/freertos.c ****   {
 210              		.loc 1 238 87 is_stmt 1 discriminator 3 view .LVU37
ARM GAS  C:\Users\alireza\AppData\Local\Temp\ccABXiOc.s 			page 9


 211 0050 0133     		adds	r3, r3, #1
 212              	.LVL18:
 213              	.L15:
 238:Core/Src/freertos.c ****   {
 214              		.loc 1 238 24 discriminator 1 view .LVU38
 215 0052 0F2B     		cmp	r3, #15
 216 0054 EED9     		bls	.L16
 217              	.LBE3:
 218              	.LBB4:
 241:Core/Src/freertos.c ****   }
 242:Core/Src/freertos.c ****   for (size_t i = 0; i < (sizeof(test_table.data) / sizeof(test_table.data[0])); i++)
 219              		.loc 1 242 15 is_stmt 0 view .LVU39
 220 0056 0020     		movs	r0, #0
 221 0058 11E0     		b	.L17
 222              	.LVL19:
 223              	.L18:
 224              	.LBB5:
 243:Core/Src/freertos.c ****   {
 244:Core/Src/freertos.c ****     for (size_t j = 0; j < (sizeof(test_table.data[0]) / sizeof(test_table.data[0][0])); j++)
 245:Core/Src/freertos.c ****     {
 246:Core/Src/freertos.c ****       test_table.data[i][j] = (i + 1) * (j + 1);  // Example values
 225              		.loc 1 246 7 is_stmt 1 view .LVU40
 226              		.loc 1 246 44 is_stmt 0 view .LVU41
 227 005a 5A1C     		adds	r2, r3, #1
 228              		.loc 1 246 39 view .LVU42
 229 005c 00FB0221 		mla	r1, r0, r2, r2
 230 0060 07EE901A 		vmov	s15, r1	@ int
 231              		.loc 1 246 29 view .LVU43
 232 0064 03EB0013 		add	r3, r3, r0, lsl #4
 233              	.LVL20:
 234              		.loc 1 246 29 view .LVU44
 235 0068 1A49     		ldr	r1, .L26+4
 236 006a 01EB8303 		add	r3, r1, r3, lsl #2
 237 006e F8EE677A 		vcvt.f32.u32	s15, s15
 238 0072 C3ED007A 		vstr.32	s15, [r3]
 244:Core/Src/freertos.c ****     {
 239              		.loc 1 244 91 is_stmt 1 discriminator 3 view .LVU45
 240              	.LVL21:
 244:Core/Src/freertos.c ****     {
 241              		.loc 1 244 91 is_stmt 0 discriminator 3 view .LVU46
 242 0076 1346     		mov	r3, r2
 243              	.LVL22:
 244              	.L19:
 244:Core/Src/freertos.c ****     {
 245              		.loc 1 244 26 is_stmt 1 discriminator 1 view .LVU47
 246 0078 0F2B     		cmp	r3, #15
 247 007a EED9     		bls	.L18
 248              	.LBE5:
 242:Core/Src/freertos.c ****   {
 249              		.loc 1 242 83 discriminator 2 view .LVU48
 250 007c 0130     		adds	r0, r0, #1
 251              	.LVL23:
 252              	.L17:
 242:Core/Src/freertos.c ****   {
 253              		.loc 1 242 24 discriminator 1 view .LVU49
 254 007e 0F28     		cmp	r0, #15
 255 0080 0CD8     		bhi	.L22
ARM GAS  C:\Users\alireza\AppData\Local\Temp\ccABXiOc.s 			page 10


 256              	.LBB6:
 244:Core/Src/freertos.c ****     {
 257              		.loc 1 244 17 is_stmt 0 view .LVU50
 258 0082 0023     		movs	r3, #0
 259 0084 F8E7     		b	.L19
 260              	.LVL24:
 261              	.L20:
 244:Core/Src/freertos.c ****     {
 262              		.loc 1 244 17 view .LVU51
 263              	.LBE6:
 264              	.LBE4:
 265              	.LBB7:
 247:Core/Src/freertos.c ****     }
 248:Core/Src/freertos.c ****   }
 249:Core/Src/freertos.c **** 
 250:Core/Src/freertos.c ****   /* Infinite loop */
 251:Core/Src/freertos.c ****   for(;;)
 252:Core/Src/freertos.c ****   {
 253:Core/Src/freertos.c ****     osDelay(10);
 254:Core/Src/freertos.c ****     static float rpm = 0;
 255:Core/Src/freertos.c ****     static float load = 0;
 256:Core/Src/freertos.c ****     rpm += 10;  // Simulate RPM increase
 257:Core/Src/freertos.c ****     load = 11.25f;  // Simulate load increase
 258:Core/Src/freertos.c ****     if (rpm > 5000)
 259:Core/Src/freertos.c ****     {
 260:Core/Src/freertos.c ****       rpm = -1000;
 261:Core/Src/freertos.c ****     }
 262:Core/Src/freertos.c ****     table_value = table_2d_get_value(&test_table, rpm, load);
 266              		.loc 1 262 5 is_stmt 1 view .LVU52
 267              		.loc 1 262 19 is_stmt 0 view .LVU53
 268 0086 DFED140A 		vldr.32	s1, .L26+8
 269 008a 144B     		ldr	r3, .L26+12
 270 008c 93ED000A 		vldr.32	s0, [r3]
 271 0090 1048     		ldr	r0, .L26+4
 272 0092 FFF7FEFF 		bl	table_2d_get_value
 273              	.LVL25:
 274              		.loc 1 262 17 discriminator 1 view .LVU54
 275 0096 124B     		ldr	r3, .L26+16
 276 0098 83ED000A 		vstr.32	s0, [r3]
 277              	.LBE7:
 251:Core/Src/freertos.c ****   {
 278              		.loc 1 251 3 is_stmt 1 view .LVU55
 279              	.L22:
 251:Core/Src/freertos.c ****   {
 280              		.loc 1 251 3 view .LVU56
 281              	.LBB8:
 253:Core/Src/freertos.c ****     static float rpm = 0;
 282              		.loc 1 253 5 view .LVU57
 283 009c 0A20     		movs	r0, #10
 284 009e FFF7FEFF 		bl	osDelay
 285              	.LVL26:
 254:Core/Src/freertos.c ****     static float load = 0;
 286              		.loc 1 254 5 view .LVU58
 255:Core/Src/freertos.c ****     rpm += 10;  // Simulate RPM increase
 287              		.loc 1 255 5 view .LVU59
 256:Core/Src/freertos.c ****     load = 11.25f;  // Simulate load increase
 288              		.loc 1 256 5 view .LVU60
ARM GAS  C:\Users\alireza\AppData\Local\Temp\ccABXiOc.s 			page 11


 256:Core/Src/freertos.c ****     load = 11.25f;  // Simulate load increase
 289              		.loc 1 256 9 is_stmt 0 view .LVU61
 290 00a2 0E4B     		ldr	r3, .L26+12
 291 00a4 D3ED007A 		vldr.32	s15, [r3]
 292 00a8 B2EE047A 		vmov.f32	s14, #1.0e+1
 293 00ac 77EE877A 		vadd.f32	s15, s15, s14
 294 00b0 C3ED007A 		vstr.32	s15, [r3]
 257:Core/Src/freertos.c ****     if (rpm > 5000)
 295              		.loc 1 257 5 is_stmt 1 view .LVU62
 257:Core/Src/freertos.c ****     if (rpm > 5000)
 296              		.loc 1 257 10 is_stmt 0 view .LVU63
 297 00b4 0B4B     		ldr	r3, .L26+20
 298 00b6 0C4A     		ldr	r2, .L26+24
 299 00b8 1A60     		str	r2, [r3]	@ float
 258:Core/Src/freertos.c ****     {
 300              		.loc 1 258 5 is_stmt 1 view .LVU64
 258:Core/Src/freertos.c ****     {
 301              		.loc 1 258 8 is_stmt 0 view .LVU65
 302 00ba 9FED0C7A 		vldr.32	s14, .L26+28
 303 00be F4EEC77A 		vcmpe.f32	s15, s14
 304 00c2 F1EE10FA 		vmrs	APSR_nzcv, FPSCR
 305 00c6 DEDD     		ble	.L20
 260:Core/Src/freertos.c ****     }
 306              		.loc 1 260 7 is_stmt 1 view .LVU66
 260:Core/Src/freertos.c ****     }
 307              		.loc 1 260 11 is_stmt 0 view .LVU67
 308 00c8 044B     		ldr	r3, .L26+12
 309 00ca 094A     		ldr	r2, .L26+32
 310 00cc 1A60     		str	r2, [r3]	@ float
 311 00ce DAE7     		b	.L20
 312              	.L27:
 313              		.align	2
 314              	.L26:
 315 00d0 00000000 		.word	engine_flagsHandle
 316 00d4 00000000 		.word	test_table
 317 00d8 00003441 		.word	1093926912
 318 00dc 00000000 		.word	rpm.1
 319 00e0 00000000 		.word	table_value
 320 00e4 00000000 		.word	load.0
 321 00e8 00003441 		.word	1093926912
 322 00ec 00409C45 		.word	1167867904
 323 00f0 00007AC4 		.word	-998637568
 324              	.LBE8:
 325              		.cfi_endproc
 326              	.LFE236:
 328              		.section	.text.MX_FREERTOS_Init,"ax",%progbits
 329              		.align	1
 330              		.global	MX_FREERTOS_Init
 331              		.syntax unified
 332              		.thumb
 333              		.thumb_func
 335              	MX_FREERTOS_Init:
 336              	.LFB232:
 107:Core/Src/freertos.c ****   /* USER CODE BEGIN Init */
 337              		.loc 1 107 29 is_stmt 1 view -0
 338              		.cfi_startproc
 339              		@ args = 0, pretend = 0, frame = 0
ARM GAS  C:\Users\alireza\AppData\Local\Temp\ccABXiOc.s 			page 12


 340              		@ frame_needed = 0, uses_anonymous_args = 0
 341 0000 08B5     		push	{r3, lr}
 342              		.cfi_def_cfa_offset 8
 343              		.cfi_offset 3, -8
 344              		.cfi_offset 14, -4
 130:Core/Src/freertos.c **** 
 345              		.loc 1 130 3 view .LVU69
 130:Core/Src/freertos.c **** 
 346              		.loc 1 130 23 is_stmt 0 view .LVU70
 347 0002 114A     		ldr	r2, .L30
 348 0004 0021     		movs	r1, #0
 349 0006 1148     		ldr	r0, .L30+4
 350 0008 FFF7FEFF 		bl	osThreadNew
 351              	.LVL27:
 130:Core/Src/freertos.c **** 
 352              		.loc 1 130 21 discriminator 1 view .LVU71
 353 000c 104B     		ldr	r3, .L30+8
 354 000e 1860     		str	r0, [r3]
 133:Core/Src/freertos.c **** 
 355              		.loc 1 133 3 is_stmt 1 view .LVU72
 133:Core/Src/freertos.c **** 
 356              		.loc 1 133 20 is_stmt 0 view .LVU73
 357 0010 104A     		ldr	r2, .L30+12
 358 0012 0021     		movs	r1, #0
 359 0014 1048     		ldr	r0, .L30+16
 360 0016 FFF7FEFF 		bl	osThreadNew
 361              	.LVL28:
 133:Core/Src/freertos.c **** 
 362              		.loc 1 133 18 discriminator 1 view .LVU74
 363 001a 104B     		ldr	r3, .L30+20
 364 001c 1860     		str	r0, [r3]
 136:Core/Src/freertos.c **** 
 365              		.loc 1 136 3 is_stmt 1 view .LVU75
 136:Core/Src/freertos.c **** 
 366              		.loc 1 136 21 is_stmt 0 view .LVU76
 367 001e 104A     		ldr	r2, .L30+24
 368 0020 0021     		movs	r1, #0
 369 0022 1048     		ldr	r0, .L30+28
 370 0024 FFF7FEFF 		bl	osThreadNew
 371              	.LVL29:
 136:Core/Src/freertos.c **** 
 372              		.loc 1 136 19 discriminator 1 view .LVU77
 373 0028 0F4B     		ldr	r3, .L30+32
 374 002a 1860     		str	r0, [r3]
 139:Core/Src/freertos.c **** 
 375              		.loc 1 139 3 is_stmt 1 view .LVU78
 139:Core/Src/freertos.c **** 
 376              		.loc 1 139 21 is_stmt 0 view .LVU79
 377 002c 0F4A     		ldr	r2, .L30+36
 378 002e 0021     		movs	r1, #0
 379 0030 0F48     		ldr	r0, .L30+40
 380 0032 FFF7FEFF 		bl	osThreadNew
 381              	.LVL30:
 139:Core/Src/freertos.c **** 
 382              		.loc 1 139 19 discriminator 1 view .LVU80
 383 0036 0F4B     		ldr	r3, .L30+44
 384 0038 1860     		str	r0, [r3]
ARM GAS  C:\Users\alireza\AppData\Local\Temp\ccABXiOc.s 			page 13


 147:Core/Src/freertos.c **** 
 385              		.loc 1 147 3 is_stmt 1 view .LVU81
 147:Core/Src/freertos.c **** 
 386              		.loc 1 147 24 is_stmt 0 view .LVU82
 387 003a 0F48     		ldr	r0, .L30+48
 388 003c FFF7FEFF 		bl	osEventFlagsNew
 389              	.LVL31:
 147:Core/Src/freertos.c **** 
 390              		.loc 1 147 22 discriminator 1 view .LVU83
 391 0040 0E4B     		ldr	r3, .L30+52
 392 0042 1860     		str	r0, [r3]
 153:Core/Src/freertos.c **** 
 393              		.loc 1 153 1 view .LVU84
 394 0044 08BD     		pop	{r3, pc}
 395              	.L31:
 396 0046 00BF     		.align	2
 397              	.L30:
 398 0048 00000000 		.word	defaultTask_attributes
 399 004c 00000000 		.word	StartDefaultTask
 400 0050 00000000 		.word	defaultTaskHandle
 401 0054 00000000 		.word	trig_sim_attributes
 402 0058 00000000 		.word	trigger_simulator_task
 403 005c 00000000 		.word	trig_simHandle
 404 0060 00000000 		.word	fuel_task_attributes
 405 0064 00000000 		.word	start_fuel_task
 406 0068 00000000 		.word	fuel_taskHandle
 407 006c 00000000 		.word	init_task_attributes
 408 0070 00000000 		.word	controller_init_task
 409 0074 00000000 		.word	init_taskHandle
 410 0078 00000000 		.word	engine_flags_attributes
 411 007c 00000000 		.word	engine_flagsHandle
 412              		.cfi_endproc
 413              	.LFE232:
 415              		.section	.text.toggle_led,"ax",%progbits
 416              		.align	1
 417              		.global	toggle_led
 418              		.syntax unified
 419              		.thumb
 420              		.thumb_func
 422              	toggle_led:
 423              	.LFB237:
 263:Core/Src/freertos.c ****   }
 264:Core/Src/freertos.c ****   /* USER CODE END controller_init_task */
 265:Core/Src/freertos.c **** }
 266:Core/Src/freertos.c **** 
 267:Core/Src/freertos.c **** /* Private application code --------------------------------------------------*/
 268:Core/Src/freertos.c **** /* USER CODE BEGIN Application */
 269:Core/Src/freertos.c **** void toggle_led()
 270:Core/Src/freertos.c **** {
 424              		.loc 1 270 1 is_stmt 1 view -0
 425              		.cfi_startproc
 426              		@ args = 0, pretend = 0, frame = 0
 427              		@ frame_needed = 0, uses_anonymous_args = 0
 428 0000 08B5     		push	{r3, lr}
 429              		.cfi_def_cfa_offset 8
 430              		.cfi_offset 3, -8
 431              		.cfi_offset 14, -4
ARM GAS  C:\Users\alireza\AppData\Local\Temp\ccABXiOc.s 			page 14


 271:Core/Src/freertos.c ****   HAL_GPIO_TogglePin(LED_GPIO_Port, LED_Pin);
 432              		.loc 1 271 3 view .LVU86
 433 0002 4FF40051 		mov	r1, #8192
 434 0006 0248     		ldr	r0, .L34
 435 0008 FFF7FEFF 		bl	HAL_GPIO_TogglePin
 436              	.LVL32:
 272:Core/Src/freertos.c **** }
 437              		.loc 1 272 1 is_stmt 0 view .LVU87
 438 000c 08BD     		pop	{r3, pc}
 439              	.L35:
 440 000e 00BF     		.align	2
 441              	.L34:
 442 0010 00080240 		.word	1073874944
 443              		.cfi_endproc
 444              	.LFE237:
 446              		.section	.bss.load.0,"aw",%nobits
 447              		.align	2
 450              	load.0:
 451 0000 00000000 		.space	4
 452              		.section	.bss.rpm.1,"aw",%nobits
 453              		.align	2
 456              	rpm.1:
 457 0000 00000000 		.space	4
 458              		.global	engine_flags_attributes
 459              		.section	.rodata.str1.4,"aMS",%progbits,1
 460              		.align	2
 461              	.LC0:
 462 0000 656E6769 		.ascii	"engine_flags\000"
 462      6E655F66 
 462      6C616773 
 462      00
 463              		.section	.rodata.engine_flags_attributes,"a"
 464              		.align	2
 467              	engine_flags_attributes:
 468 0000 00000000 		.word	.LC0
 469 0004 00000000 		.space	12
 469      00000000 
 469      00000000 
 470              		.global	engine_flagsHandle
 471              		.section	.bss.engine_flagsHandle,"aw",%nobits
 472              		.align	2
 475              	engine_flagsHandle:
 476 0000 00000000 		.space	4
 477              		.global	init_task_attributes
 478              		.section	.rodata.str1.4
 479 000d 000000   		.align	2
 480              	.LC1:
 481 0010 696E6974 		.ascii	"init_task\000"
 481      5F746173 
 481      6B00
 482              		.section	.rodata.init_task_attributes,"a"
 483              		.align	2
 486              	init_task_attributes:
 487 0000 10000000 		.word	.LC1
 488 0004 00000000 		.space	16
 488      00000000 
 488      00000000 
ARM GAS  C:\Users\alireza\AppData\Local\Temp\ccABXiOc.s 			page 15


 488      00000000 
 489 0014 00020000 		.word	512
 490 0018 18000000 		.word	24
 491 001c 00000000 		.space	8
 491      00000000 
 492              		.global	init_taskHandle
 493              		.section	.bss.init_taskHandle,"aw",%nobits
 494              		.align	2
 497              	init_taskHandle:
 498 0000 00000000 		.space	4
 499              		.global	fuel_task_attributes
 500              		.section	.rodata.str1.4
 501 001a 0000     		.align	2
 502              	.LC2:
 503 001c 6675656C 		.ascii	"fuel_task\000"
 503      5F746173 
 503      6B00
 504              		.section	.rodata.fuel_task_attributes,"a"
 505              		.align	2
 508              	fuel_task_attributes:
 509 0000 1C000000 		.word	.LC2
 510 0004 00000000 		.space	16
 510      00000000 
 510      00000000 
 510      00000000 
 511 0014 00020000 		.word	512
 512 0018 18000000 		.word	24
 513 001c 00000000 		.space	8
 513      00000000 
 514              		.global	fuel_taskHandle
 515              		.section	.bss.fuel_taskHandle,"aw",%nobits
 516              		.align	2
 519              	fuel_taskHandle:
 520 0000 00000000 		.space	4
 521              		.global	trig_sim_attributes
 522              		.section	.rodata.str1.4
 523 0026 0000     		.align	2
 524              	.LC3:
 525 0028 74726967 		.ascii	"trig_sim\000"
 525      5F73696D 
 525      00
 526              		.section	.rodata.trig_sim_attributes,"a"
 527              		.align	2
 530              	trig_sim_attributes:
 531 0000 28000000 		.word	.LC3
 532 0004 00000000 		.space	16
 532      00000000 
 532      00000000 
 532      00000000 
 533 0014 00020000 		.word	512
 534 0018 08000000 		.word	8
 535 001c 00000000 		.space	8
 535      00000000 
 536              		.global	trig_simHandle
 537              		.section	.bss.trig_simHandle,"aw",%nobits
 538              		.align	2
 541              	trig_simHandle:
ARM GAS  C:\Users\alireza\AppData\Local\Temp\ccABXiOc.s 			page 16


 542 0000 00000000 		.space	4
 543              		.global	defaultTask_attributes
 544              		.section	.rodata.str1.4
 545 0031 000000   		.align	2
 546              	.LC4:
 547 0034 64656661 		.ascii	"defaultTask\000"
 547      756C7454 
 547      61736B00 
 548              		.section	.rodata.defaultTask_attributes,"a"
 549              		.align	2
 552              	defaultTask_attributes:
 553 0000 34000000 		.word	.LC4
 554 0004 00000000 		.space	16
 554      00000000 
 554      00000000 
 554      00000000 
 555 0014 00020000 		.word	512
 556 0018 18000000 		.word	24
 557 001c 00000000 		.space	8
 557      00000000 
 558              		.global	defaultTaskHandle
 559              		.section	.bss.defaultTaskHandle,"aw",%nobits
 560              		.align	2
 563              	defaultTaskHandle:
 564 0000 00000000 		.space	4
 565              		.global	table_value
 566              		.section	.bss.table_value,"aw",%nobits
 567              		.align	2
 570              	table_value:
 571 0000 00000000 		.space	4
 572              		.global	test_table
 573              		.section	.bss.test_table,"aw",%nobits
 574              		.align	2
 577              	test_table:
 578 0000 00000000 		.space	1152
 578      00000000 
 578      00000000 
 578      00000000 
 578      00000000 
 579              		.global	simulated_rpm
 580              		.section	.data.simulated_rpm,"aw"
 581              		.align	2
 584              	simulated_rpm:
 585 0000 00007A44 		.word	1148846080
 586              		.text
 587              	.Letext0:
 588              		.file 2 "C:/Users/alireza/AppData/Roaming/Code/User/globalStorage/bmd.stm32-for-vscode/@xpack-dev-
 589              		.file 3 "C:/Users/alireza/AppData/Roaming/Code/User/globalStorage/bmd.stm32-for-vscode/@xpack-dev-
 590              		.file 4 "C:/Users/alireza/AppData/Roaming/Code/User/globalStorage/bmd.stm32-for-vscode/@xpack-dev-
 591              		.file 5 "Drivers/CMSIS/Device/ST/STM32F4xx/Include/stm32f401xc.h"
 592              		.file 6 "Middlewares/Third_Party/FreeRTOS/Source/CMSIS_RTOS_V2/cmsis_os2.h"
 593              		.file 7 "controller/types.h"
 594              		.file 8 "controller/tables.h"
 595              		.file 9 "controller/utils/comms.h"
 596              		.file 10 "Drivers/STM32F4xx_HAL_Driver/Inc/stm32f4xx_hal_gpio.h"
 597              		.file 11 "controller/controller.h"
 598              		.file 12 "controller/utils/trigger_simulator.h"
ARM GAS  C:\Users\alireza\AppData\Local\Temp\ccABXiOc.s 			page 17


 599              		.file 13 "controller/engine_cycle/trigger.h"
ARM GAS  C:\Users\alireza\AppData\Local\Temp\ccABXiOc.s 			page 18


DEFINED SYMBOLS
                            *ABS*:00000000 freertos.c
C:\Users\alireza\AppData\Local\Temp\ccABXiOc.s:21     .text.StartDefaultTask:00000000 $t
C:\Users\alireza\AppData\Local\Temp\ccABXiOc.s:27     .text.StartDefaultTask:00000000 StartDefaultTask
C:\Users\alireza\AppData\Local\Temp\ccABXiOc.s:59     .text.start_fuel_task:00000000 $t
C:\Users\alireza\AppData\Local\Temp\ccABXiOc.s:65     .text.start_fuel_task:00000000 start_fuel_task
C:\Users\alireza\AppData\Local\Temp\ccABXiOc.s:91     .text.trigger_simulator_task:00000000 $t
C:\Users\alireza\AppData\Local\Temp\ccABXiOc.s:97     .text.trigger_simulator_task:00000000 trigger_simulator_task
C:\Users\alireza\AppData\Local\Temp\ccABXiOc.s:134    .text.trigger_simulator_task:00000020 $d
C:\Users\alireza\AppData\Local\Temp\ccABXiOc.s:584    .data.simulated_rpm:00000000 simulated_rpm
C:\Users\alireza\AppData\Local\Temp\ccABXiOc.s:140    .text.controller_init_task:00000000 $t
C:\Users\alireza\AppData\Local\Temp\ccABXiOc.s:146    .text.controller_init_task:00000000 controller_init_task
C:\Users\alireza\AppData\Local\Temp\ccABXiOc.s:315    .text.controller_init_task:000000d0 $d
C:\Users\alireza\AppData\Local\Temp\ccABXiOc.s:475    .bss.engine_flagsHandle:00000000 engine_flagsHandle
C:\Users\alireza\AppData\Local\Temp\ccABXiOc.s:577    .bss.test_table:00000000 test_table
C:\Users\alireza\AppData\Local\Temp\ccABXiOc.s:456    .bss.rpm.1:00000000 rpm.1
C:\Users\alireza\AppData\Local\Temp\ccABXiOc.s:570    .bss.table_value:00000000 table_value
C:\Users\alireza\AppData\Local\Temp\ccABXiOc.s:450    .bss.load.0:00000000 load.0
C:\Users\alireza\AppData\Local\Temp\ccABXiOc.s:329    .text.MX_FREERTOS_Init:00000000 $t
C:\Users\alireza\AppData\Local\Temp\ccABXiOc.s:335    .text.MX_FREERTOS_Init:00000000 MX_FREERTOS_Init
C:\Users\alireza\AppData\Local\Temp\ccABXiOc.s:398    .text.MX_FREERTOS_Init:00000048 $d
C:\Users\alireza\AppData\Local\Temp\ccABXiOc.s:552    .rodata.defaultTask_attributes:00000000 defaultTask_attributes
C:\Users\alireza\AppData\Local\Temp\ccABXiOc.s:563    .bss.defaultTaskHandle:00000000 defaultTaskHandle
C:\Users\alireza\AppData\Local\Temp\ccABXiOc.s:530    .rodata.trig_sim_attributes:00000000 trig_sim_attributes
C:\Users\alireza\AppData\Local\Temp\ccABXiOc.s:541    .bss.trig_simHandle:00000000 trig_simHandle
C:\Users\alireza\AppData\Local\Temp\ccABXiOc.s:508    .rodata.fuel_task_attributes:00000000 fuel_task_attributes
C:\Users\alireza\AppData\Local\Temp\ccABXiOc.s:519    .bss.fuel_taskHandle:00000000 fuel_taskHandle
C:\Users\alireza\AppData\Local\Temp\ccABXiOc.s:486    .rodata.init_task_attributes:00000000 init_task_attributes
C:\Users\alireza\AppData\Local\Temp\ccABXiOc.s:497    .bss.init_taskHandle:00000000 init_taskHandle
C:\Users\alireza\AppData\Local\Temp\ccABXiOc.s:467    .rodata.engine_flags_attributes:00000000 engine_flags_attributes
C:\Users\alireza\AppData\Local\Temp\ccABXiOc.s:416    .text.toggle_led:00000000 $t
C:\Users\alireza\AppData\Local\Temp\ccABXiOc.s:422    .text.toggle_led:00000000 toggle_led
C:\Users\alireza\AppData\Local\Temp\ccABXiOc.s:442    .text.toggle_led:00000010 $d
C:\Users\alireza\AppData\Local\Temp\ccABXiOc.s:447    .bss.load.0:00000000 $d
C:\Users\alireza\AppData\Local\Temp\ccABXiOc.s:453    .bss.rpm.1:00000000 $d
C:\Users\alireza\AppData\Local\Temp\ccABXiOc.s:460    .rodata.str1.4:00000000 $d
C:\Users\alireza\AppData\Local\Temp\ccABXiOc.s:464    .rodata.engine_flags_attributes:00000000 $d
C:\Users\alireza\AppData\Local\Temp\ccABXiOc.s:472    .bss.engine_flagsHandle:00000000 $d
C:\Users\alireza\AppData\Local\Temp\ccABXiOc.s:483    .rodata.init_task_attributes:00000000 $d
C:\Users\alireza\AppData\Local\Temp\ccABXiOc.s:494    .bss.init_taskHandle:00000000 $d
C:\Users\alireza\AppData\Local\Temp\ccABXiOc.s:505    .rodata.fuel_task_attributes:00000000 $d
C:\Users\alireza\AppData\Local\Temp\ccABXiOc.s:516    .bss.fuel_taskHandle:00000000 $d
C:\Users\alireza\AppData\Local\Temp\ccABXiOc.s:527    .rodata.trig_sim_attributes:00000000 $d
C:\Users\alireza\AppData\Local\Temp\ccABXiOc.s:538    .bss.trig_simHandle:00000000 $d
C:\Users\alireza\AppData\Local\Temp\ccABXiOc.s:549    .rodata.defaultTask_attributes:00000000 $d
C:\Users\alireza\AppData\Local\Temp\ccABXiOc.s:560    .bss.defaultTaskHandle:00000000 $d
C:\Users\alireza\AppData\Local\Temp\ccABXiOc.s:567    .bss.table_value:00000000 $d
C:\Users\alireza\AppData\Local\Temp\ccABXiOc.s:574    .bss.test_table:00000000 $d
C:\Users\alireza\AppData\Local\Temp\ccABXiOc.s:581    .data.simulated_rpm:00000000 $d

UNDEFINED SYMBOLS
MX_USB_DEVICE_Init
osDelay
trigger_simulator_init
trigger_simulator_update
trigger_tooth_handle
controller_init
ARM GAS  C:\Users\alireza\AppData\Local\Temp\ccABXiOc.s 			page 19


table_2d_get_value
osThreadNew
osEventFlagsNew
HAL_GPIO_TogglePin
