ARM GAS  C:\Users\alireza\AppData\Local\Temp\cc0j3g2P.s 			page 1


   1              		.cpu cortex-m4
   2              		.arch armv7e-m
   3              		.fpu fpv4-sp-d16
   4              		.eabi_attribute 27, 1
   5              		.eabi_attribute 28, 1
   6              		.eabi_attribute 20, 1
   7              		.eabi_attribute 21, 1
   8              		.eabi_attribute 23, 3
   9              		.eabi_attribute 24, 1
  10              		.eabi_attribute 25, 1
  11              		.eabi_attribute 26, 1
  12              		.eabi_attribute 30, 1
  13              		.eabi_attribute 34, 1
  14              		.eabi_attribute 18, 4
  15              		.file	"freertos.c"
  16              		.text
  17              	.Ltext0:
  18              		.cfi_sections	.debug_frame
  19              		.file 1 "Core/Src/freertos.c"
  20              		.section	.text.StartDefaultTask,"ax",%progbits
  21              		.align	1
  22              		.global	StartDefaultTask
  23              		.syntax unified
  24              		.thumb
  25              		.thumb_func
  27              	StartDefaultTask:
  28              	.LVL0:
  29              	.LFB237:
   1:Core/Src/freertos.c **** /* USER CODE BEGIN Header */
   2:Core/Src/freertos.c **** /**
   3:Core/Src/freertos.c ****   ******************************************************************************
   4:Core/Src/freertos.c ****   * File Name          : freertos.c
   5:Core/Src/freertos.c ****   * Description        : Code for freertos applications
   6:Core/Src/freertos.c ****   ******************************************************************************
   7:Core/Src/freertos.c ****   * @attention
   8:Core/Src/freertos.c ****   *
   9:Core/Src/freertos.c ****   * Copyright (c) 2025 STMicroelectronics.
  10:Core/Src/freertos.c ****   * All rights reserved.
  11:Core/Src/freertos.c ****   *
  12:Core/Src/freertos.c ****   * This software is licensed under terms that can be found in the LICENSE file
  13:Core/Src/freertos.c ****   * in the root directory of this software component.
  14:Core/Src/freertos.c ****   * If no LICENSE file comes with this software, it is provided AS-IS.
  15:Core/Src/freertos.c ****   *
  16:Core/Src/freertos.c ****   ******************************************************************************
  17:Core/Src/freertos.c ****   */
  18:Core/Src/freertos.c **** /* USER CODE END Header */
  19:Core/Src/freertos.c **** 
  20:Core/Src/freertos.c **** /* Includes ------------------------------------------------------------------*/
  21:Core/Src/freertos.c **** #include "FreeRTOS.h"
  22:Core/Src/freertos.c **** #include "task.h"
  23:Core/Src/freertos.c **** #include "main.h"
  24:Core/Src/freertos.c **** #include "cmsis_os.h"
  25:Core/Src/freertos.c **** 
  26:Core/Src/freertos.c **** /* Private includes ----------------------------------------------------------*/
  27:Core/Src/freertos.c **** /* USER CODE BEGIN Includes */
  28:Core/Src/freertos.c **** #include "controller.h"
  29:Core/Src/freertos.c **** #include "trigger_simulator.h"
ARM GAS  C:\Users\alireza\AppData\Local\Temp\cc0j3g2P.s 			page 2


  30:Core/Src/freertos.c **** #include "utils.h"
  31:Core/Src/freertos.c **** /* USER CODE END Includes */
  32:Core/Src/freertos.c **** 
  33:Core/Src/freertos.c **** /* Private typedef -----------------------------------------------------------*/
  34:Core/Src/freertos.c **** typedef StaticEventGroup_t osStaticEventGroupDef_t;
  35:Core/Src/freertos.c **** /* USER CODE BEGIN PTD */
  36:Core/Src/freertos.c **** 
  37:Core/Src/freertos.c **** /* USER CODE END PTD */
  38:Core/Src/freertos.c **** 
  39:Core/Src/freertos.c **** /* Private define ------------------------------------------------------------*/
  40:Core/Src/freertos.c **** /* USER CODE BEGIN PD */
  41:Core/Src/freertos.c **** 
  42:Core/Src/freertos.c **** /* USER CODE END PD */
  43:Core/Src/freertos.c **** 
  44:Core/Src/freertos.c **** /* Private macro -------------------------------------------------------------*/
  45:Core/Src/freertos.c **** /* USER CODE BEGIN PM */
  46:Core/Src/freertos.c **** 
  47:Core/Src/freertos.c **** /* USER CODE END PM */
  48:Core/Src/freertos.c **** 
  49:Core/Src/freertos.c **** /* Private variables ---------------------------------------------------------*/
  50:Core/Src/freertos.c **** /* USER CODE BEGIN Variables */
  51:Core/Src/freertos.c **** 
  52:Core/Src/freertos.c **** table_2d_t test_table = {0};
  53:Core/Src/freertos.c **** float table_value = 0.0f;
  54:Core/Src/freertos.c **** /* USER CODE END Variables */
  55:Core/Src/freertos.c **** /* Definitions for defaultTask */
  56:Core/Src/freertos.c **** osThreadId_t defaultTaskHandle;
  57:Core/Src/freertos.c **** const osThreadAttr_t defaultTask_attributes = {
  58:Core/Src/freertos.c ****   .name = "defaultTask",
  59:Core/Src/freertos.c ****   .stack_size = 512 * 4,
  60:Core/Src/freertos.c ****   .priority = (osPriority_t) osPriorityRealtime,
  61:Core/Src/freertos.c **** };
  62:Core/Src/freertos.c **** /* Definitions for init_task */
  63:Core/Src/freertos.c **** osThreadId_t init_taskHandle;
  64:Core/Src/freertos.c **** const osThreadAttr_t init_task_attributes = {
  65:Core/Src/freertos.c ****   .name = "init_task",
  66:Core/Src/freertos.c ****   .stack_size = 1024 * 4,
  67:Core/Src/freertos.c ****   .priority = (osPriority_t) osPriorityRealtime,
  68:Core/Src/freertos.c **** };
  69:Core/Src/freertos.c **** /* Definitions for engine_flags */
  70:Core/Src/freertos.c **** osEventFlagsId_t engine_flagsHandle;
  71:Core/Src/freertos.c **** osStaticEventGroupDef_t engine_flagsControlBlock;
  72:Core/Src/freertos.c **** const osEventFlagsAttr_t engine_flags_attributes = {
  73:Core/Src/freertos.c ****   .name = "engine_flags",
  74:Core/Src/freertos.c ****   .cb_mem = &engine_flagsControlBlock,
  75:Core/Src/freertos.c ****   .cb_size = sizeof(engine_flagsControlBlock),
  76:Core/Src/freertos.c **** };
  77:Core/Src/freertos.c **** 
  78:Core/Src/freertos.c **** /* Private function prototypes -----------------------------------------------*/
  79:Core/Src/freertos.c **** /* USER CODE BEGIN FunctionPrototypes */
  80:Core/Src/freertos.c **** 
  81:Core/Src/freertos.c **** void toggle_led();
  82:Core/Src/freertos.c **** 
  83:Core/Src/freertos.c **** /* USER CODE END FunctionPrototypes */
  84:Core/Src/freertos.c **** 
  85:Core/Src/freertos.c **** void StartDefaultTask(void *argument);
  86:Core/Src/freertos.c **** void controller_init_task(void *argument);
ARM GAS  C:\Users\alireza\AppData\Local\Temp\cc0j3g2P.s 			page 3


  87:Core/Src/freertos.c **** 
  88:Core/Src/freertos.c **** extern void MX_USB_DEVICE_Init(void);
  89:Core/Src/freertos.c **** void MX_FREERTOS_Init(void); /* (MISRA C 2004 rule 8.1) */
  90:Core/Src/freertos.c **** 
  91:Core/Src/freertos.c **** /**
  92:Core/Src/freertos.c ****   * @brief  FreeRTOS initialization
  93:Core/Src/freertos.c ****   * @param  None
  94:Core/Src/freertos.c ****   * @retval None
  95:Core/Src/freertos.c ****   */
  96:Core/Src/freertos.c **** void MX_FREERTOS_Init(void) {
  97:Core/Src/freertos.c ****   /* USER CODE BEGIN Init */
  98:Core/Src/freertos.c **** 
  99:Core/Src/freertos.c ****   /* USER CODE END Init */
 100:Core/Src/freertos.c **** 
 101:Core/Src/freertos.c ****   /* USER CODE BEGIN RTOS_MUTEX */
 102:Core/Src/freertos.c ****   /* add mutexes, ... */
 103:Core/Src/freertos.c ****   /* USER CODE END RTOS_MUTEX */
 104:Core/Src/freertos.c **** 
 105:Core/Src/freertos.c ****   /* USER CODE BEGIN RTOS_SEMAPHORES */
 106:Core/Src/freertos.c ****   /* add semaphores, ... */
 107:Core/Src/freertos.c ****   /* USER CODE END RTOS_SEMAPHORES */
 108:Core/Src/freertos.c **** 
 109:Core/Src/freertos.c ****   /* USER CODE BEGIN RTOS_TIMERS */
 110:Core/Src/freertos.c ****   /* start timers, add new ones, ... */
 111:Core/Src/freertos.c ****   /* USER CODE END RTOS_TIMERS */
 112:Core/Src/freertos.c **** 
 113:Core/Src/freertos.c ****   /* USER CODE BEGIN RTOS_QUEUES */
 114:Core/Src/freertos.c ****   /* add queues, ... */
 115:Core/Src/freertos.c ****   /* USER CODE END RTOS_QUEUES */
 116:Core/Src/freertos.c **** 
 117:Core/Src/freertos.c ****   /* Create the thread(s) */
 118:Core/Src/freertos.c ****   /* creation of defaultTask */
 119:Core/Src/freertos.c ****   defaultTaskHandle = osThreadNew(StartDefaultTask, NULL, &defaultTask_attributes);
 120:Core/Src/freertos.c **** 
 121:Core/Src/freertos.c ****   /* creation of init_task */
 122:Core/Src/freertos.c ****   init_taskHandle = osThreadNew(controller_init_task, NULL, &init_task_attributes);
 123:Core/Src/freertos.c **** 
 124:Core/Src/freertos.c ****   /* USER CODE BEGIN RTOS_THREADS */
 125:Core/Src/freertos.c ****   /* add threads, ... */
 126:Core/Src/freertos.c ****   /* USER CODE END RTOS_THREADS */
 127:Core/Src/freertos.c **** 
 128:Core/Src/freertos.c ****   /* Create the event(s) */
 129:Core/Src/freertos.c ****   /* creation of engine_flags */
 130:Core/Src/freertos.c ****   engine_flagsHandle = osEventFlagsNew(&engine_flags_attributes);
 131:Core/Src/freertos.c **** 
 132:Core/Src/freertos.c ****   /* USER CODE BEGIN RTOS_EVENTS */
 133:Core/Src/freertos.c ****   /* add events, ... */
 134:Core/Src/freertos.c ****   /* USER CODE END RTOS_EVENTS */
 135:Core/Src/freertos.c **** 
 136:Core/Src/freertos.c **** }
 137:Core/Src/freertos.c **** 
 138:Core/Src/freertos.c **** /* USER CODE BEGIN Header_StartDefaultTask */
 139:Core/Src/freertos.c **** /**
 140:Core/Src/freertos.c ****   * @brief  Function implementing the defaultTask thread.
 141:Core/Src/freertos.c ****   * @param  argument: Not used
 142:Core/Src/freertos.c ****   * @retval None
 143:Core/Src/freertos.c ****   */
ARM GAS  C:\Users\alireza\AppData\Local\Temp\cc0j3g2P.s 			page 4


 144:Core/Src/freertos.c **** /* USER CODE END Header_StartDefaultTask */
 145:Core/Src/freertos.c **** void StartDefaultTask(void *argument)
 146:Core/Src/freertos.c **** {
  30              		.loc 1 146 1 view -0
  31              		.cfi_startproc
  32              		@ Volatile: function does not return.
  33              		@ args = 0, pretend = 0, frame = 0
  34              		@ frame_needed = 0, uses_anonymous_args = 0
  35              		.loc 1 146 1 is_stmt 0 view .LVU1
  36 0000 08B5     		push	{r3, lr}
  37              		.cfi_def_cfa_offset 8
  38              		.cfi_offset 3, -8
  39              		.cfi_offset 14, -4
 147:Core/Src/freertos.c ****   /* init code for USB_DEVICE */
 148:Core/Src/freertos.c ****   MX_USB_DEVICE_Init();
  40              		.loc 1 148 3 is_stmt 1 view .LVU2
  41 0002 FFF7FEFF 		bl	MX_USB_DEVICE_Init
  42              	.LVL1:
 149:Core/Src/freertos.c ****   /* USER CODE BEGIN StartDefaultTask */
 150:Core/Src/freertos.c **** 
 151:Core/Src/freertos.c ****   osDelay(100);
  43              		.loc 1 151 3 view .LVU3
  44 0006 6420     		movs	r0, #100
  45 0008 FFF7FEFF 		bl	osDelay
  46              	.LVL2:
  47              	.L2:
 152:Core/Src/freertos.c ****   
 153:Core/Src/freertos.c ****   /* Infinite loop */
 154:Core/Src/freertos.c ****   for(;;)
  48              		.loc 1 154 3 view .LVU4
 155:Core/Src/freertos.c ****   {
 156:Core/Src/freertos.c **** 
 157:Core/Src/freertos.c ****     osDelay(1);
  49              		.loc 1 157 5 discriminator 1 view .LVU5
  50 000c 0120     		movs	r0, #1
  51 000e FFF7FEFF 		bl	osDelay
  52              	.LVL3:
 154:Core/Src/freertos.c ****   {
  53              		.loc 1 154 3 view .LVU6
  54 0012 FBE7     		b	.L2
  55              		.cfi_endproc
  56              	.LFE237:
  58              		.section	.text.controller_init_task,"ax",%progbits
  59              		.align	1
  60              		.global	controller_init_task
  61              		.syntax unified
  62              		.thumb
  63              		.thumb_func
  65              	controller_init_task:
  66              	.LVL4:
  67              	.LFB238:
 158:Core/Src/freertos.c ****   }
 159:Core/Src/freertos.c ****   /* USER CODE END StartDefaultTask */
 160:Core/Src/freertos.c **** }
 161:Core/Src/freertos.c **** 
 162:Core/Src/freertos.c **** /* USER CODE BEGIN Header_controller_init_task */
 163:Core/Src/freertos.c **** /**
ARM GAS  C:\Users\alireza\AppData\Local\Temp\cc0j3g2P.s 			page 5


 164:Core/Src/freertos.c **** * @brief Function implementing the init_task thread.
 165:Core/Src/freertos.c **** * @param argument: Not used
 166:Core/Src/freertos.c **** * @retval None
 167:Core/Src/freertos.c **** */
 168:Core/Src/freertos.c **** /* USER CODE END Header_controller_init_task */
 169:Core/Src/freertos.c **** void controller_init_task(void *argument)
 170:Core/Src/freertos.c **** {
  68              		.loc 1 170 1 view -0
  69              		.cfi_startproc
  70              		@ Volatile: function does not return.
  71              		@ args = 0, pretend = 0, frame = 0
  72              		@ frame_needed = 0, uses_anonymous_args = 0
  73              		.loc 1 170 1 is_stmt 0 view .LVU8
  74 0000 08B5     		push	{r3, lr}
  75              		.cfi_def_cfa_offset 8
  76              		.cfi_offset 3, -8
  77              		.cfi_offset 14, -4
 171:Core/Src/freertos.c ****   /* USER CODE BEGIN controller_init_task */
 172:Core/Src/freertos.c **** 
 173:Core/Src/freertos.c ****   controller_init();
  78              		.loc 1 173 3 is_stmt 1 view .LVU9
  79 0002 FFF7FEFF 		bl	controller_init
  80              	.LVL5:
  81              	.L5:
 174:Core/Src/freertos.c **** 
 175:Core/Src/freertos.c **** 
 176:Core/Src/freertos.c **** 
 177:Core/Src/freertos.c ****   /* Infinite loop */
 178:Core/Src/freertos.c ****   for(;;)
  82              		.loc 1 178 3 view .LVU10
 179:Core/Src/freertos.c ****   {
 180:Core/Src/freertos.c ****     osDelay(100);
  83              		.loc 1 180 5 discriminator 1 view .LVU11
  84 0006 6420     		movs	r0, #100
  85 0008 FFF7FEFF 		bl	osDelay
  86              	.LVL6:
 178:Core/Src/freertos.c ****   {
  87              		.loc 1 178 3 view .LVU12
  88 000c FBE7     		b	.L5
  89              		.cfi_endproc
  90              	.LFE238:
  92              		.section	.text.MX_FREERTOS_Init,"ax",%progbits
  93              		.align	1
  94              		.global	MX_FREERTOS_Init
  95              		.syntax unified
  96              		.thumb
  97              		.thumb_func
  99              	MX_FREERTOS_Init:
 100              	.LFB236:
  96:Core/Src/freertos.c ****   /* USER CODE BEGIN Init */
 101              		.loc 1 96 29 view -0
 102              		.cfi_startproc
 103              		@ args = 0, pretend = 0, frame = 0
 104              		@ frame_needed = 0, uses_anonymous_args = 0
 105 0000 08B5     		push	{r3, lr}
 106              		.cfi_def_cfa_offset 8
 107              		.cfi_offset 3, -8
ARM GAS  C:\Users\alireza\AppData\Local\Temp\cc0j3g2P.s 			page 6


 108              		.cfi_offset 14, -4
 119:Core/Src/freertos.c **** 
 109              		.loc 1 119 3 view .LVU14
 119:Core/Src/freertos.c **** 
 110              		.loc 1 119 23 is_stmt 0 view .LVU15
 111 0002 0A4A     		ldr	r2, .L9
 112 0004 0021     		movs	r1, #0
 113 0006 0A48     		ldr	r0, .L9+4
 114 0008 FFF7FEFF 		bl	osThreadNew
 115              	.LVL7:
 119:Core/Src/freertos.c **** 
 116              		.loc 1 119 21 discriminator 1 view .LVU16
 117 000c 094B     		ldr	r3, .L9+8
 118 000e 1860     		str	r0, [r3]
 122:Core/Src/freertos.c **** 
 119              		.loc 1 122 3 is_stmt 1 view .LVU17
 122:Core/Src/freertos.c **** 
 120              		.loc 1 122 21 is_stmt 0 view .LVU18
 121 0010 094A     		ldr	r2, .L9+12
 122 0012 0021     		movs	r1, #0
 123 0014 0948     		ldr	r0, .L9+16
 124 0016 FFF7FEFF 		bl	osThreadNew
 125              	.LVL8:
 122:Core/Src/freertos.c **** 
 126              		.loc 1 122 19 discriminator 1 view .LVU19
 127 001a 094B     		ldr	r3, .L9+20
 128 001c 1860     		str	r0, [r3]
 130:Core/Src/freertos.c **** 
 129              		.loc 1 130 3 is_stmt 1 view .LVU20
 130:Core/Src/freertos.c **** 
 130              		.loc 1 130 24 is_stmt 0 view .LVU21
 131 001e 0948     		ldr	r0, .L9+24
 132 0020 FFF7FEFF 		bl	osEventFlagsNew
 133              	.LVL9:
 130:Core/Src/freertos.c **** 
 134              		.loc 1 130 22 discriminator 1 view .LVU22
 135 0024 084B     		ldr	r3, .L9+28
 136 0026 1860     		str	r0, [r3]
 136:Core/Src/freertos.c **** 
 137              		.loc 1 136 1 view .LVU23
 138 0028 08BD     		pop	{r3, pc}
 139              	.L10:
 140 002a 00BF     		.align	2
 141              	.L9:
 142 002c 00000000 		.word	defaultTask_attributes
 143 0030 00000000 		.word	StartDefaultTask
 144 0034 00000000 		.word	defaultTaskHandle
 145 0038 00000000 		.word	init_task_attributes
 146 003c 00000000 		.word	controller_init_task
 147 0040 00000000 		.word	init_taskHandle
 148 0044 00000000 		.word	engine_flags_attributes
 149 0048 00000000 		.word	engine_flagsHandle
 150              		.cfi_endproc
 151              	.LFE236:
 153              		.section	.text.toggle_led,"ax",%progbits
 154              		.align	1
 155              		.global	toggle_led
ARM GAS  C:\Users\alireza\AppData\Local\Temp\cc0j3g2P.s 			page 7


 156              		.syntax unified
 157              		.thumb
 158              		.thumb_func
 160              	toggle_led:
 161              	.LFB239:
 181:Core/Src/freertos.c **** 
 182:Core/Src/freertos.c ****   }
 183:Core/Src/freertos.c ****   /* USER CODE END controller_init_task */
 184:Core/Src/freertos.c **** }
 185:Core/Src/freertos.c **** 
 186:Core/Src/freertos.c **** /* Private application code --------------------------------------------------*/
 187:Core/Src/freertos.c **** /* USER CODE BEGIN Application */
 188:Core/Src/freertos.c **** void toggle_led()
 189:Core/Src/freertos.c **** {
 162              		.loc 1 189 1 is_stmt 1 view -0
 163              		.cfi_startproc
 164              		@ args = 0, pretend = 0, frame = 0
 165              		@ frame_needed = 0, uses_anonymous_args = 0
 166 0000 08B5     		push	{r3, lr}
 167              		.cfi_def_cfa_offset 8
 168              		.cfi_offset 3, -8
 169              		.cfi_offset 14, -4
 190:Core/Src/freertos.c ****   HAL_GPIO_TogglePin(LED_GPIO_Port, LED_Pin);
 170              		.loc 1 190 3 view .LVU25
 171 0002 4FF40051 		mov	r1, #8192
 172 0006 0248     		ldr	r0, .L13
 173 0008 FFF7FEFF 		bl	HAL_GPIO_TogglePin
 174              	.LVL10:
 191:Core/Src/freertos.c **** }
 175              		.loc 1 191 1 is_stmt 0 view .LVU26
 176 000c 08BD     		pop	{r3, pc}
 177              	.L14:
 178 000e 00BF     		.align	2
 179              	.L13:
 180 0010 00080240 		.word	1073874944
 181              		.cfi_endproc
 182              	.LFE239:
 184              		.global	engine_flags_attributes
 185              		.section	.rodata.str1.4,"aMS",%progbits,1
 186              		.align	2
 187              	.LC0:
 188 0000 656E6769 		.ascii	"engine_flags\000"
 188      6E655F66 
 188      6C616773 
 188      00
 189              		.section	.rodata.engine_flags_attributes,"a"
 190              		.align	2
 193              	engine_flags_attributes:
 194 0000 00000000 		.word	.LC0
 195 0004 00000000 		.space	4
 196 0008 00000000 		.word	engine_flagsControlBlock
 197 000c 20000000 		.word	32
 198              		.global	engine_flagsControlBlock
 199              		.section	.bss.engine_flagsControlBlock,"aw",%nobits
 200              		.align	2
 203              	engine_flagsControlBlock:
 204 0000 00000000 		.space	32
ARM GAS  C:\Users\alireza\AppData\Local\Temp\cc0j3g2P.s 			page 8


 204      00000000 
 204      00000000 
 204      00000000 
 204      00000000 
 205              		.global	engine_flagsHandle
 206              		.section	.bss.engine_flagsHandle,"aw",%nobits
 207              		.align	2
 210              	engine_flagsHandle:
 211 0000 00000000 		.space	4
 212              		.global	init_task_attributes
 213              		.section	.rodata.str1.4
 214 000d 000000   		.align	2
 215              	.LC1:
 216 0010 696E6974 		.ascii	"init_task\000"
 216      5F746173 
 216      6B00
 217              		.section	.rodata.init_task_attributes,"a"
 218              		.align	2
 221              	init_task_attributes:
 222 0000 10000000 		.word	.LC1
 223 0004 00000000 		.space	16
 223      00000000 
 223      00000000 
 223      00000000 
 224 0014 00100000 		.word	4096
 225 0018 30000000 		.word	48
 226 001c 00000000 		.space	8
 226      00000000 
 227              		.global	init_taskHandle
 228              		.section	.bss.init_taskHandle,"aw",%nobits
 229              		.align	2
 232              	init_taskHandle:
 233 0000 00000000 		.space	4
 234              		.global	defaultTask_attributes
 235              		.section	.rodata.str1.4
 236 001a 0000     		.align	2
 237              	.LC2:
 238 001c 64656661 		.ascii	"defaultTask\000"
 238      756C7454 
 238      61736B00 
 239              		.section	.rodata.defaultTask_attributes,"a"
 240              		.align	2
 243              	defaultTask_attributes:
 244 0000 1C000000 		.word	.LC2
 245 0004 00000000 		.space	16
 245      00000000 
 245      00000000 
 245      00000000 
 246 0014 00080000 		.word	2048
 247 0018 30000000 		.word	48
 248 001c 00000000 		.space	8
 248      00000000 
 249              		.global	defaultTaskHandle
 250              		.section	.bss.defaultTaskHandle,"aw",%nobits
 251              		.align	2
 254              	defaultTaskHandle:
 255 0000 00000000 		.space	4
ARM GAS  C:\Users\alireza\AppData\Local\Temp\cc0j3g2P.s 			page 9


 256              		.global	table_value
 257              		.section	.bss.table_value,"aw",%nobits
 258              		.align	2
 261              	table_value:
 262 0000 00000000 		.space	4
 263              		.global	test_table
 264              		.section	.bss.test_table,"aw",%nobits
 265              		.align	2
 268              	test_table:
 269 0000 00000000 		.space	1152
 269      00000000 
 269      00000000 
 269      00000000 
 269      00000000 
 270              		.text
 271              	.Letext0:
 272              		.file 2 "C:/Users/alireza/AppData/Roaming/Code/User/globalStorage/bmd.stm32-for-vscode/@xpack-dev-
 273              		.file 3 "C:/Users/alireza/AppData/Roaming/Code/User/globalStorage/bmd.stm32-for-vscode/@xpack-dev-
 274              		.file 4 "Middlewares/Third_Party/FreeRTOS/Source/portable/GCC/ARM_CM4F/portmacro.h"
 275              		.file 5 "Middlewares/Third_Party/FreeRTOS/Source/include/FreeRTOS.h"
 276              		.file 6 "Drivers/CMSIS/Device/ST/STM32F4xx/Include/stm32f401xc.h"
 277              		.file 7 "Middlewares/Third_Party/FreeRTOS/Source/CMSIS_RTOS_V2/cmsis_os2.h"
 278              		.file 8 "controller/tables.h"
 279              		.file 9 "Drivers/STM32F4xx_HAL_Driver/Inc/stm32f4xx_hal_gpio.h"
 280              		.file 10 "controller/controller.h"
ARM GAS  C:\Users\alireza\AppData\Local\Temp\cc0j3g2P.s 			page 10

