ARM GAS  C:\Users\alireza\AppData\Local\Temp\ccdatTau.s 			page 1


   1              		.cpu cortex-m4
   2              		.arch armv7e-m
   3              		.fpu fpv4-sp-d16
   4              		.eabi_attribute 27, 1
   5              		.eabi_attribute 28, 1
   6              		.eabi_attribute 20, 1
   7              		.eabi_attribute 21, 1
   8              		.eabi_attribute 23, 3
   9              		.eabi_attribute 24, 1
  10              		.eabi_attribute 25, 1
  11              		.eabi_attribute 26, 1
  12              		.eabi_attribute 30, 1
  13              		.eabi_attribute 34, 1
  14              		.eabi_attribute 18, 4
  15              		.file	"fuel_math.c"
  16              		.text
  17              	.Ltext0:
  18              		.cfi_sections	.debug_frame
  19              		.file 1 "controller/algorithm/fuel/fuel_math.c"
  20              		.section	.text.ideal_gas_law,"ax",%progbits
  21              		.align	1
  22              		.global	ideal_gas_law
  23              		.syntax unified
  24              		.thumb
  25              		.thumb_func
  27              	ideal_gas_law:
  28              	.LVL0:
  29              	.LFB232:
   1:controller/algorithm/fuel/fuel_math.c **** #include "fuel_math.h"
   2:controller/algorithm/fuel/fuel_math.c **** /**
   3:controller/algorithm/fuel/fuel_math.c ****  * Ideal gas law is PV = nRT
   4:controller/algorithm/fuel/fuel_math.c ****  * n = m / M        while M is molar weight
   5:controller/algorithm/fuel/fuel_math.c ****  * Derived via:
   6:controller/algorithm/fuel/fuel_math.c ****  * (8.31 J K mol^-1)  <- ideal gas constant R
   7:controller/algorithm/fuel/fuel_math.c ****  *
   8:controller/algorithm/fuel/fuel_math.c ****  * (28.97g mol^-1)    <- molar mass of air
   9:controller/algorithm/fuel/fuel_math.c ****  * = 0.28705 J*K/g
  10:controller/algorithm/fuel/fuel_math.c ****  */
  11:controller/algorithm/fuel/fuel_math.c **** #define AIR_R 0.28705f
  12:controller/algorithm/fuel/fuel_math.c **** 
  13:controller/algorithm/fuel/fuel_math.c **** mass_t ideal_gas_law(float volume, pressure_t pressure, temperature_t temperature);
  14:controller/algorithm/fuel/fuel_math.c **** 
  15:controller/algorithm/fuel/fuel_math.c **** /**
  16:controller/algorithm/fuel/fuel_math.c ****  * @brief Calculates air mass in grams using RPM, volumetric efficiency (VE),
  17:controller/algorithm/fuel/fuel_math.c ****  *        and intake air temperature (IAT).
  18:controller/algorithm/fuel/fuel_math.c ****  *
  19:controller/algorithm/fuel/fuel_math.c ****  * This function uses the ideal gas law and engine parameters to estimate
  20:controller/algorithm/fuel/fuel_math.c ****  * the mass of air entering the engine.
  21:controller/algorithm/fuel/fuel_math.c ****  * Ideal gas law PV = nRT
  22:controller/algorithm/fuel/fuel_math.c ****  *
  23:controller/algorithm/fuel/fuel_math.c ****  * @param rpm Engine speed in revolutions per minute.
  24:controller/algorithm/fuel/fuel_math.c ****  * @param pressure Manifold abslute pressure.
  25:controller/algorithm/fuel/fuel_math.c ****  * @param iat Intake air temperature in Kelvin.
  26:controller/algorithm/fuel/fuel_math.c ****  * @return The calculated air mass in grams.
  27:controller/algorithm/fuel/fuel_math.c ****  */
  28:controller/algorithm/fuel/fuel_math.c **** mass_t air_mass_get(rpm_t rpm, percent_t ve, pressure_t map, temperature_t iat);
  29:controller/algorithm/fuel/fuel_math.c **** 
ARM GAS  C:\Users\alireza\AppData\Local\Temp\ccdatTau.s 			page 2


  30:controller/algorithm/fuel/fuel_math.c **** mass_t ideal_gas_law(float volume, pressure_t pressure, temperature_t temperature)
  31:controller/algorithm/fuel/fuel_math.c **** {
  30              		.loc 1 31 1 view -0
  31              		.cfi_startproc
  32              		@ args = 0, pretend = 0, frame = 0
  33              		@ frame_needed = 0, uses_anonymous_args = 0
  34              		@ link register save eliminated.
  32:controller/algorithm/fuel/fuel_math.c **** 	return volume * pressure / (AIR_R * temperature);
  35              		.loc 1 32 2 view .LVU1
  36              		.loc 1 32 16 is_stmt 0 view .LVU2
  37 0000 20EE200A 		vmul.f32	s0, s0, s1
  38              	.LVL1:
  39              		.loc 1 32 36 view .LVU3
  40 0004 DFED037A 		vldr.32	s15, .L2
  41 0008 21EE271A 		vmul.f32	s2, s2, s15
  42              	.LVL2:
  33:controller/algorithm/fuel/fuel_math.c **** }
  43              		.loc 1 33 1 view .LVU4
  44 000c 80EE010A 		vdiv.f32	s0, s0, s2
  45 0010 7047     		bx	lr
  46              	.L3:
  47 0012 00BF     		.align	2
  48              	.L2:
  49 0014 38F8923E 		.word	1049819192
  50              		.cfi_endproc
  51              	.LFE232:
  53              		.section	.text.air_mass_get,"ax",%progbits
  54              		.align	1
  55              		.global	air_mass_get
  56              		.syntax unified
  57              		.thumb
  58              		.thumb_func
  60              	air_mass_get:
  61              	.LVL3:
  62              	.LFB233:
  34:controller/algorithm/fuel/fuel_math.c **** 
  35:controller/algorithm/fuel/fuel_math.c **** mass_t air_mass_get(rpm_t rpm, percent_t ve, pressure_t map, temperature_t iat)
  36:controller/algorithm/fuel/fuel_math.c **** {
  63              		.loc 1 36 1 is_stmt 1 view -0
  64              		.cfi_startproc
  65              		@ args = 0, pretend = 0, frame = 0
  66              		@ frame_needed = 0, uses_anonymous_args = 0
  67              		.loc 1 36 1 is_stmt 0 view .LVU6
  68 0000 08B5     		push	{r3, lr}
  69              		.cfi_def_cfa_offset 8
  70              		.cfi_offset 3, -8
  71              		.cfi_offset 14, -4
  72 0002 2DED028B 		vpush.64	{d8}
  73              		.cfi_def_cfa_offset 16
  74              		.cfi_offset 80, -16
  75              		.cfi_offset 81, -12
  76 0006 B0EE608A 		vmov.f32	s16, s1
  77 000a F0EE410A 		vmov.f32	s1, s2
  78              	.LVL4:
  37:controller/algorithm/fuel/fuel_math.c ****     mass_t air_mass = 0;
  79              		.loc 1 37 5 is_stmt 1 view .LVU7
  38:controller/algorithm/fuel/fuel_math.c ****     // check if this is mathematically correct
ARM GAS  C:\Users\alireza\AppData\Local\Temp\ccdatTau.s 			page 3


  39:controller/algorithm/fuel/fuel_math.c ****     air_mass = ve * ideal_gas_law(config.engine_displacement_cc, map, CELSIUS_TO_KELVIN(iat));
  80              		.loc 1 39 5 view .LVU8
  81              		.loc 1 39 41 is_stmt 0 view .LVU9
  82 000e 094B     		ldr	r3, .L6
  83 0010 B3F88E32 		ldrh	r3, [r3, #654]
  84 0014 00EE103A 		vmov	s0, r3	@ int
  85              	.LVL5:
  86              		.loc 1 39 21 view .LVU10
  87 0018 9FED071A 		vldr.32	s2, .L6+4
  88              	.LVL6:
  89              		.loc 1 39 21 view .LVU11
  90 001c 31EE811A 		vadd.f32	s2, s3, s2
  91 0020 B8EE400A 		vcvt.f32.u32	s0, s0
  92 0024 FFF7FEFF 		bl	ideal_gas_law
  93              	.LVL7:
  40:controller/algorithm/fuel/fuel_math.c ****     return air_mass;
  94              		.loc 1 40 5 is_stmt 1 view .LVU12
  41:controller/algorithm/fuel/fuel_math.c **** }
  95              		.loc 1 41 1 is_stmt 0 view .LVU13
  96 0028 20EE080A 		vmul.f32	s0, s0, s16
  97              	.LVL8:
  98              		.loc 1 41 1 view .LVU14
  99 002c BDEC028B 		vldm	sp!, {d8}
 100              		.cfi_restore 80
 101              		.cfi_restore 81
 102              		.cfi_def_cfa_offset 8
 103              	.LVL9:
 104              		.loc 1 41 1 view .LVU15
 105 0030 08BD     		pop	{r3, pc}
 106              	.L7:
 107 0032 00BF     		.align	2
 108              	.L6:
 109 0034 00100000 		.word	config+4096
 110 0038 33938843 		.word	1133024051
 111              		.cfi_endproc
 112              	.LFE233:
 114              		.section	.rodata.fuel_get_required_mass.str1.4,"aMS",%progbits,1
 115              		.align	2
 116              	.LC0:
 117 0000 44656661 		.ascii	"Defaulting to natural gas as fuel.\000"
 117      756C7469 
 117      6E672074 
 117      6F206E61 
 117      74757261 
 118              		.section	.text.fuel_get_required_mass,"ax",%progbits
 119              		.align	1
 120              		.global	fuel_get_required_mass
 121              		.syntax unified
 122              		.thumb
 123              		.thumb_func
 125              	fuel_get_required_mass:
 126              	.LVL10:
 127              	.LFB234:
  42:controller/algorithm/fuel/fuel_math.c **** 
  43:controller/algorithm/fuel/fuel_math.c **** mass_t fuel_get_required_mass(mass_t air_mass, afr_t afr)
  44:controller/algorithm/fuel/fuel_math.c **** {
 128              		.loc 1 44 1 is_stmt 1 view -0
ARM GAS  C:\Users\alireza\AppData\Local\Temp\ccdatTau.s 			page 4


 129              		.cfi_startproc
 130              		@ args = 0, pretend = 0, frame = 0
 131              		@ frame_needed = 0, uses_anonymous_args = 0
 132              		.loc 1 44 1 is_stmt 0 view .LVU17
 133 0000 08B5     		push	{r3, lr}
 134              		.cfi_def_cfa_offset 8
 135              		.cfi_offset 3, -8
 136              		.cfi_offset 14, -4
 137 0002 2DED028B 		vpush.64	{d8}
 138              		.cfi_def_cfa_offset 16
 139              		.cfi_offset 80, -16
 140              		.cfi_offset 81, -12
  45:controller/algorithm/fuel/fuel_math.c ****     mass_t fuel_mass = 0;
 141              		.loc 1 45 5 is_stmt 1 view .LVU18
 142              	.LVL11:
  46:controller/algorithm/fuel/fuel_math.c ****     switch (config.fuel_type)
 143              		.loc 1 46 5 view .LVU19
 144              		.loc 1 46 19 is_stmt 0 view .LVU20
 145 0006 124B     		ldr	r3, .L14
 146 0008 93F89932 		ldrb	r3, [r3, #665]	@ zero_extendqisi2
 147              		.loc 1 46 5 view .LVU21
 148 000c 012B     		cmp	r3, #1
 149 000e 08D0     		beq	.L9
 150 0010 022B     		cmp	r3, #2
 151 0012 15D0     		beq	.L12
 152 0014 5BB9     		cbnz	r3, .L11
  47:controller/algorithm/fuel/fuel_math.c ****     {
  48:controller/algorithm/fuel/fuel_math.c ****     case FUEL_TYPE_GAS:
  49:controller/algorithm/fuel/fuel_math.c ****         fuel_mass = air_mass / config.stoich_afr_gas;
 153              		.loc 1 49 9 is_stmt 1 view .LVU22
 154              		.loc 1 49 38 is_stmt 0 view .LVU23
 155 0016 0E4B     		ldr	r3, .L14
 156 0018 D3ED877A 		vldr.32	s15, [r3, #540]
 157              		.loc 1 49 19 view .LVU24
 158 001c 80EE278A 		vdiv.f32	s16, s0, s15
 159              	.LVL12:
  50:controller/algorithm/fuel/fuel_math.c ****         break;
 160              		.loc 1 50 9 is_stmt 1 view .LVU25
 161 0020 10E0     		b	.L8
 162              	.LVL13:
 163              	.L9:
  51:controller/algorithm/fuel/fuel_math.c ****     case FUEL_TYPE_GASOLINE:
  52:controller/algorithm/fuel/fuel_math.c ****         fuel_mass = air_mass / config.stoich_afr_petrol;
 164              		.loc 1 52 9 view .LVU26
 165              		.loc 1 52 38 is_stmt 0 view .LVU27
 166 0022 0B4B     		ldr	r3, .L14
 167 0024 D3ED887A 		vldr.32	s15, [r3, #544]
 168              		.loc 1 52 19 view .LVU28
 169 0028 80EE278A 		vdiv.f32	s16, s0, s15
 170              	.LVL14:
  53:controller/algorithm/fuel/fuel_math.c ****         break;
 171              		.loc 1 53 9 is_stmt 1 view .LVU29
 172 002c 0AE0     		b	.L8
 173              	.LVL15:
 174              	.L11:
  54:controller/algorithm/fuel/fuel_math.c **** 
  55:controller/algorithm/fuel/fuel_math.c ****     case FUEL_TYPE_DUAL_FUEL:
ARM GAS  C:\Users\alireza\AppData\Local\Temp\ccdatTau.s 			page 5


  56:controller/algorithm/fuel/fuel_math.c ****         /* @todo implement this*/
  57:controller/algorithm/fuel/fuel_math.c ****         break;
  58:controller/algorithm/fuel/fuel_math.c ****         
  59:controller/algorithm/fuel/fuel_math.c ****     default:
  60:controller/algorithm/fuel/fuel_math.c ****         /* Defults to natural gas */
  61:controller/algorithm/fuel/fuel_math.c ****         fuel_mass = air_mass / config.stoich_afr_gas;
 175              		.loc 1 61 9 view .LVU30
 176              		.loc 1 61 38 is_stmt 0 view .LVU31
 177 002e 084B     		ldr	r3, .L14
 178 0030 D3ED877A 		vldr.32	s15, [r3, #540]
 179              		.loc 1 61 19 view .LVU32
 180 0034 80EE278A 		vdiv.f32	s16, s0, s15
 181              	.LVL16:
  62:controller/algorithm/fuel/fuel_math.c ****         log_warning("Defaulting to natural gas as fuel.");
 182              		.loc 1 62 9 is_stmt 1 view .LVU33
 183 0038 0648     		ldr	r0, .L14+4
 184 003a FFF7FEFF 		bl	log_warning
 185              	.LVL17:
  63:controller/algorithm/fuel/fuel_math.c ****         break;
 186              		.loc 1 63 9 view .LVU34
 187 003e 01E0     		b	.L8
 188              	.LVL18:
 189              	.L12:
  46:controller/algorithm/fuel/fuel_math.c ****     {
 190              		.loc 1 46 5 is_stmt 0 view .LVU35
 191 0040 9FED058A 		vldr.32	s16, .L14+8
  64:controller/algorithm/fuel/fuel_math.c ****     }
  65:controller/algorithm/fuel/fuel_math.c **** 
  66:controller/algorithm/fuel/fuel_math.c ****     return fuel_mass;
 192              		.loc 1 66 5 is_stmt 1 view .LVU36
 193              	.LVL19:
 194              	.L8:
  67:controller/algorithm/fuel/fuel_math.c **** }
 195              		.loc 1 67 1 is_stmt 0 view .LVU37
 196 0044 B0EE480A 		vmov.f32	s0, s16
 197 0048 BDEC028B 		vldm	sp!, {d8}
 198              		.cfi_restore 80
 199              		.cfi_restore 81
 200              		.cfi_def_cfa_offset 8
 201 004c 08BD     		pop	{r3, pc}
 202              	.L15:
 203 004e 00BF     		.align	2
 204              	.L14:
 205 0050 00100000 		.word	config+4096
 206 0054 00000000 		.word	.LC0
 207 0058 00000000 		.word	0
 208              		.cfi_endproc
 209              	.LFE234:
 211              		.text
 212              	.Letext0:
 213              		.file 2 "C:/Users/alireza/AppData/Roaming/Code/User/globalStorage/bmd.stm32-for-vscode/@xpack-dev-
 214              		.file 3 "C:/Users/alireza/AppData/Roaming/Code/User/globalStorage/bmd.stm32-for-vscode/@xpack-dev-
 215              		.file 4 "controller/types.h"
 216              		.file 5 "controller/tables.h"
 217              		.file 6 "controller/config_and_runtime.h"
 218              		.file 7 "controller/utils/error_handling.h"
ARM GAS  C:\Users\alireza\AppData\Local\Temp\ccdatTau.s 			page 6

