ARM GAS  C:\Users\alireza\AppData\Local\Temp\cc16atpt.s 			page 1


   1              		.cpu cortex-m4
   2              		.arch armv7e-m
   3              		.fpu fpv4-sp-d16
   4              		.eabi_attribute 27, 1
   5              		.eabi_attribute 28, 1
   6              		.eabi_attribute 20, 1
   7              		.eabi_attribute 21, 1
   8              		.eabi_attribute 23, 3
   9              		.eabi_attribute 24, 1
  10              		.eabi_attribute 25, 1
  11              		.eabi_attribute 26, 1
  12              		.eabi_attribute 30, 1
  13              		.eabi_attribute 34, 1
  14              		.eabi_attribute 18, 4
  15              		.file	"gpio.c"
  16              		.text
  17              	.Ltext0:
  18              		.cfi_sections	.debug_frame
  19              		.file 1 "Core/Src/gpio.c"
  20              		.section	.text.MX_GPIO_Init,"ax",%progbits
  21              		.align	1
  22              		.global	MX_GPIO_Init
  23              		.syntax unified
  24              		.thumb
  25              		.thumb_func
  27              	MX_GPIO_Init:
  28              	.LFB220:
   1:Core/Src/gpio.c **** /* USER CODE BEGIN Header */
   2:Core/Src/gpio.c **** /**
   3:Core/Src/gpio.c ****   ******************************************************************************
   4:Core/Src/gpio.c ****   * @file    gpio.c
   5:Core/Src/gpio.c ****   * @brief   This file provides code for the configuration
   6:Core/Src/gpio.c ****   *          of all used GPIO pins.
   7:Core/Src/gpio.c ****   ******************************************************************************
   8:Core/Src/gpio.c ****   * @attention
   9:Core/Src/gpio.c ****   *
  10:Core/Src/gpio.c ****   * Copyright (c) 2025 STMicroelectronics.
  11:Core/Src/gpio.c ****   * All rights reserved.
  12:Core/Src/gpio.c ****   *
  13:Core/Src/gpio.c ****   * This software is licensed under terms that can be found in the LICENSE file
  14:Core/Src/gpio.c ****   * in the root directory of this software component.
  15:Core/Src/gpio.c ****   * If no LICENSE file comes with this software, it is provided AS-IS.
  16:Core/Src/gpio.c ****   *
  17:Core/Src/gpio.c ****   ******************************************************************************
  18:Core/Src/gpio.c ****   */
  19:Core/Src/gpio.c **** /* USER CODE END Header */
  20:Core/Src/gpio.c **** 
  21:Core/Src/gpio.c **** /* Includes ------------------------------------------------------------------*/
  22:Core/Src/gpio.c **** #include "gpio.h"
  23:Core/Src/gpio.c **** 
  24:Core/Src/gpio.c **** /* USER CODE BEGIN 0 */
  25:Core/Src/gpio.c **** 
  26:Core/Src/gpio.c **** /* USER CODE END 0 */
  27:Core/Src/gpio.c **** 
  28:Core/Src/gpio.c **** /*----------------------------------------------------------------------------*/
  29:Core/Src/gpio.c **** /* Configure GPIO                                                             */
  30:Core/Src/gpio.c **** /*----------------------------------------------------------------------------*/
ARM GAS  C:\Users\alireza\AppData\Local\Temp\cc16atpt.s 			page 2


  31:Core/Src/gpio.c **** /* USER CODE BEGIN 1 */
  32:Core/Src/gpio.c **** 
  33:Core/Src/gpio.c **** /* USER CODE END 1 */
  34:Core/Src/gpio.c **** 
  35:Core/Src/gpio.c **** /** Configure pins as
  36:Core/Src/gpio.c ****         * Analog
  37:Core/Src/gpio.c ****         * Input
  38:Core/Src/gpio.c ****         * Output
  39:Core/Src/gpio.c ****         * EVENT_OUT
  40:Core/Src/gpio.c ****         * EXTI
  41:Core/Src/gpio.c **** */
  42:Core/Src/gpio.c **** void MX_GPIO_Init(void)
  43:Core/Src/gpio.c **** {
  29              		.loc 1 43 1 view -0
  30              		.cfi_startproc
  31              		@ args = 0, pretend = 0, frame = 40
  32              		@ frame_needed = 0, uses_anonymous_args = 0
  33 0000 2DE9F047 		push	{r4, r5, r6, r7, r8, r9, r10, lr}
  34              		.cfi_def_cfa_offset 32
  35              		.cfi_offset 4, -32
  36              		.cfi_offset 5, -28
  37              		.cfi_offset 6, -24
  38              		.cfi_offset 7, -20
  39              		.cfi_offset 8, -16
  40              		.cfi_offset 9, -12
  41              		.cfi_offset 10, -8
  42              		.cfi_offset 14, -4
  43 0004 8AB0     		sub	sp, sp, #40
  44              		.cfi_def_cfa_offset 72
  44:Core/Src/gpio.c **** 
  45:Core/Src/gpio.c ****   GPIO_InitTypeDef GPIO_InitStruct = {0};
  45              		.loc 1 45 3 view .LVU1
  46              		.loc 1 45 20 is_stmt 0 view .LVU2
  47 0006 05AD     		add	r5, sp, #20
  48 0008 0024     		movs	r4, #0
  49 000a 0594     		str	r4, [sp, #20]
  50 000c 0694     		str	r4, [sp, #24]
  51 000e 0794     		str	r4, [sp, #28]
  52 0010 0894     		str	r4, [sp, #32]
  53 0012 0994     		str	r4, [sp, #36]
  46:Core/Src/gpio.c **** 
  47:Core/Src/gpio.c ****   /* GPIO Ports Clock Enable */
  48:Core/Src/gpio.c ****   __HAL_RCC_GPIOC_CLK_ENABLE();
  54              		.loc 1 48 3 is_stmt 1 view .LVU3
  55              	.LBB2:
  56              		.loc 1 48 3 view .LVU4
  57 0014 0094     		str	r4, [sp]
  58              		.loc 1 48 3 view .LVU5
  59 0016 4B4B     		ldr	r3, .L3
  60 0018 1A6B     		ldr	r2, [r3, #48]
  61 001a 42F00402 		orr	r2, r2, #4
  62 001e 1A63     		str	r2, [r3, #48]
  63              		.loc 1 48 3 view .LVU6
  64 0020 1A6B     		ldr	r2, [r3, #48]
  65 0022 02F00402 		and	r2, r2, #4
  66 0026 0092     		str	r2, [sp]
  67              		.loc 1 48 3 view .LVU7
ARM GAS  C:\Users\alireza\AppData\Local\Temp\cc16atpt.s 			page 3


  68 0028 009A     		ldr	r2, [sp]
  69              	.LBE2:
  70              		.loc 1 48 3 view .LVU8
  49:Core/Src/gpio.c ****   __HAL_RCC_GPIOH_CLK_ENABLE();
  71              		.loc 1 49 3 view .LVU9
  72              	.LBB3:
  73              		.loc 1 49 3 view .LVU10
  74 002a 0194     		str	r4, [sp, #4]
  75              		.loc 1 49 3 view .LVU11
  76 002c 1A6B     		ldr	r2, [r3, #48]
  77 002e 42F08002 		orr	r2, r2, #128
  78 0032 1A63     		str	r2, [r3, #48]
  79              		.loc 1 49 3 view .LVU12
  80 0034 1A6B     		ldr	r2, [r3, #48]
  81 0036 02F08002 		and	r2, r2, #128
  82 003a 0192     		str	r2, [sp, #4]
  83              		.loc 1 49 3 view .LVU13
  84 003c 019A     		ldr	r2, [sp, #4]
  85              	.LBE3:
  86              		.loc 1 49 3 view .LVU14
  50:Core/Src/gpio.c ****   __HAL_RCC_GPIOA_CLK_ENABLE();
  87              		.loc 1 50 3 view .LVU15
  88              	.LBB4:
  89              		.loc 1 50 3 view .LVU16
  90 003e 0294     		str	r4, [sp, #8]
  91              		.loc 1 50 3 view .LVU17
  92 0040 1A6B     		ldr	r2, [r3, #48]
  93 0042 42F00102 		orr	r2, r2, #1
  94 0046 1A63     		str	r2, [r3, #48]
  95              		.loc 1 50 3 view .LVU18
  96 0048 1A6B     		ldr	r2, [r3, #48]
  97 004a 02F00102 		and	r2, r2, #1
  98 004e 0292     		str	r2, [sp, #8]
  99              		.loc 1 50 3 view .LVU19
 100 0050 029A     		ldr	r2, [sp, #8]
 101              	.LBE4:
 102              		.loc 1 50 3 view .LVU20
  51:Core/Src/gpio.c ****   __HAL_RCC_GPIOB_CLK_ENABLE();
 103              		.loc 1 51 3 view .LVU21
 104              	.LBB5:
 105              		.loc 1 51 3 view .LVU22
 106 0052 0394     		str	r4, [sp, #12]
 107              		.loc 1 51 3 view .LVU23
 108 0054 1A6B     		ldr	r2, [r3, #48]
 109 0056 42F00202 		orr	r2, r2, #2
 110 005a 1A63     		str	r2, [r3, #48]
 111              		.loc 1 51 3 view .LVU24
 112 005c 1A6B     		ldr	r2, [r3, #48]
 113 005e 02F00202 		and	r2, r2, #2
 114 0062 0392     		str	r2, [sp, #12]
 115              		.loc 1 51 3 view .LVU25
 116 0064 039A     		ldr	r2, [sp, #12]
 117              	.LBE5:
 118              		.loc 1 51 3 view .LVU26
  52:Core/Src/gpio.c ****   __HAL_RCC_GPIOD_CLK_ENABLE();
 119              		.loc 1 52 3 view .LVU27
 120              	.LBB6:
ARM GAS  C:\Users\alireza\AppData\Local\Temp\cc16atpt.s 			page 4


 121              		.loc 1 52 3 view .LVU28
 122 0066 0494     		str	r4, [sp, #16]
 123              		.loc 1 52 3 view .LVU29
 124 0068 1A6B     		ldr	r2, [r3, #48]
 125 006a 42F00802 		orr	r2, r2, #8
 126 006e 1A63     		str	r2, [r3, #48]
 127              		.loc 1 52 3 view .LVU30
 128 0070 1B6B     		ldr	r3, [r3, #48]
 129 0072 03F00803 		and	r3, r3, #8
 130 0076 0493     		str	r3, [sp, #16]
 131              		.loc 1 52 3 view .LVU31
 132 0078 049B     		ldr	r3, [sp, #16]
 133              	.LBE6:
 134              		.loc 1 52 3 view .LVU32
  53:Core/Src/gpio.c **** 
  54:Core/Src/gpio.c ****   /*Configure GPIO pin Output Level */
  55:Core/Src/gpio.c ****   HAL_GPIO_WritePin(GPIOC, LED_Pin|INJECTOR_OUPUT_3_Pin|INJECTOR_OUPUT_2_Pin|INJECTOR_OUPUT_1_Pin, 
 135              		.loc 1 55 3 view .LVU33
 136 007a DFF8D0A0 		ldr	r10, .L3+8
 137 007e 2246     		mov	r2, r4
 138 0080 4FF47051 		mov	r1, #15360
 139 0084 5046     		mov	r0, r10
 140 0086 FFF7FEFF 		bl	HAL_GPIO_WritePin
 141              	.LVL0:
  56:Core/Src/gpio.c **** 
  57:Core/Src/gpio.c ****   /*Configure GPIO pin Output Level */
  58:Core/Src/gpio.c ****   HAL_GPIO_WritePin(GPIOB, LOW_SIDE_1_Pin|LOW_SIDE_2_Pin|FAN_1_Pin|FAN_2_Pin
 142              		.loc 1 58 3 view .LVU34
 143 008a 2F4E     		ldr	r6, .L3+4
 144 008c 2246     		mov	r2, r4
 145 008e 4FF23F41 		movw	r1, #62527
 146 0092 3046     		mov	r0, r6
 147 0094 FFF7FEFF 		bl	HAL_GPIO_WritePin
 148              	.LVL1:
  59:Core/Src/gpio.c ****                           |AUX_RELAY_Pin|GAS_SOLENOID_RELAY_Pin|FUEL_PUMP_RELAY_Pin|MAIN_RELAY_Pin
  60:Core/Src/gpio.c ****                           |IGNITION_OUTPUT_3_Pin|IGNITION_OUTPUT_2_Pin|IGNITION_OUTPUT_1_Pin, GPIO_
  61:Core/Src/gpio.c **** 
  62:Core/Src/gpio.c ****   /*Configure GPIO pin Output Level */
  63:Core/Src/gpio.c ****   HAL_GPIO_WritePin(INJECTOR_OUPUT_4_GPIO_Port, INJECTOR_OUPUT_4_Pin, GPIO_PIN_RESET);
 149              		.loc 1 63 3 view .LVU35
 150 0098 DFF8B490 		ldr	r9, .L3+12
 151 009c 2246     		mov	r2, r4
 152 009e 4FF40041 		mov	r1, #32768
 153 00a2 4846     		mov	r0, r9
 154 00a4 FFF7FEFF 		bl	HAL_GPIO_WritePin
 155              	.LVL2:
  64:Core/Src/gpio.c **** 
  65:Core/Src/gpio.c ****   /*Configure GPIO pin Output Level */
  66:Core/Src/gpio.c ****   HAL_GPIO_WritePin(IGNITION_OUTPUT_4_GPIO_Port, IGNITION_OUTPUT_4_Pin, GPIO_PIN_RESET);
 156              		.loc 1 66 3 view .LVU36
 157 00a8 DFF8A880 		ldr	r8, .L3+16
 158 00ac 2246     		mov	r2, r4
 159 00ae 0421     		movs	r1, #4
 160 00b0 4046     		mov	r0, r8
 161 00b2 FFF7FEFF 		bl	HAL_GPIO_WritePin
 162              	.LVL3:
  67:Core/Src/gpio.c **** 
ARM GAS  C:\Users\alireza\AppData\Local\Temp\cc16atpt.s 			page 5


  68:Core/Src/gpio.c ****   /*Configure GPIO pins : LED_Pin INJECTOR_OUPUT_3_Pin INJECTOR_OUPUT_2_Pin INJECTOR_OUPUT_1_Pin */
  69:Core/Src/gpio.c ****   GPIO_InitStruct.Pin = LED_Pin|INJECTOR_OUPUT_3_Pin|INJECTOR_OUPUT_2_Pin|INJECTOR_OUPUT_1_Pin;
 163              		.loc 1 69 3 view .LVU37
 164              		.loc 1 69 23 is_stmt 0 view .LVU38
 165 00b6 4FF47053 		mov	r3, #15360
 166 00ba 0593     		str	r3, [sp, #20]
  70:Core/Src/gpio.c ****   GPIO_InitStruct.Mode = GPIO_MODE_OUTPUT_PP;
 167              		.loc 1 70 3 is_stmt 1 view .LVU39
 168              		.loc 1 70 24 is_stmt 0 view .LVU40
 169 00bc 0127     		movs	r7, #1
 170 00be 0697     		str	r7, [sp, #24]
  71:Core/Src/gpio.c ****   GPIO_InitStruct.Pull = GPIO_NOPULL;
 171              		.loc 1 71 3 is_stmt 1 view .LVU41
 172              		.loc 1 71 24 is_stmt 0 view .LVU42
 173 00c0 0794     		str	r4, [sp, #28]
  72:Core/Src/gpio.c ****   GPIO_InitStruct.Speed = GPIO_SPEED_FREQ_LOW;
 174              		.loc 1 72 3 is_stmt 1 view .LVU43
 175              		.loc 1 72 25 is_stmt 0 view .LVU44
 176 00c2 0894     		str	r4, [sp, #32]
  73:Core/Src/gpio.c ****   HAL_GPIO_Init(GPIOC, &GPIO_InitStruct);
 177              		.loc 1 73 3 is_stmt 1 view .LVU45
 178 00c4 2946     		mov	r1, r5
 179 00c6 5046     		mov	r0, r10
 180 00c8 FFF7FEFF 		bl	HAL_GPIO_Init
 181              	.LVL4:
  74:Core/Src/gpio.c **** 
  75:Core/Src/gpio.c ****   /*Configure GPIO pins : LOW_SIDE_1_Pin LOW_SIDE_2_Pin FAN_1_Pin FAN_2_Pin
  76:Core/Src/gpio.c ****                            AUX_RELAY_Pin GAS_SOLENOID_RELAY_Pin FUEL_PUMP_RELAY_Pin MAIN_RELAY_Pin
  77:Core/Src/gpio.c ****                            IGNITION_OUTPUT_3_Pin IGNITION_OUTPUT_2_Pin IGNITION_OUTPUT_1_Pin */
  78:Core/Src/gpio.c ****   GPIO_InitStruct.Pin = LOW_SIDE_1_Pin|LOW_SIDE_2_Pin|FAN_1_Pin|FAN_2_Pin
 182              		.loc 1 78 3 view .LVU46
 183              		.loc 1 78 23 is_stmt 0 view .LVU47
 184 00cc 4FF23F43 		movw	r3, #62527
 185 00d0 0593     		str	r3, [sp, #20]
  79:Core/Src/gpio.c ****                           |AUX_RELAY_Pin|GAS_SOLENOID_RELAY_Pin|FUEL_PUMP_RELAY_Pin|MAIN_RELAY_Pin
  80:Core/Src/gpio.c ****                           |IGNITION_OUTPUT_3_Pin|IGNITION_OUTPUT_2_Pin|IGNITION_OUTPUT_1_Pin;
  81:Core/Src/gpio.c ****   GPIO_InitStruct.Mode = GPIO_MODE_OUTPUT_PP;
 186              		.loc 1 81 3 is_stmt 1 view .LVU48
 187              		.loc 1 81 24 is_stmt 0 view .LVU49
 188 00d2 0697     		str	r7, [sp, #24]
  82:Core/Src/gpio.c ****   GPIO_InitStruct.Pull = GPIO_NOPULL;
 189              		.loc 1 82 3 is_stmt 1 view .LVU50
 190              		.loc 1 82 24 is_stmt 0 view .LVU51
 191 00d4 0794     		str	r4, [sp, #28]
  83:Core/Src/gpio.c ****   GPIO_InitStruct.Speed = GPIO_SPEED_FREQ_LOW;
 192              		.loc 1 83 3 is_stmt 1 view .LVU52
 193              		.loc 1 83 25 is_stmt 0 view .LVU53
 194 00d6 0894     		str	r4, [sp, #32]
  84:Core/Src/gpio.c ****   HAL_GPIO_Init(GPIOB, &GPIO_InitStruct);
 195              		.loc 1 84 3 is_stmt 1 view .LVU54
 196 00d8 2946     		mov	r1, r5
 197 00da 3046     		mov	r0, r6
 198 00dc FFF7FEFF 		bl	HAL_GPIO_Init
 199              	.LVL5:
  85:Core/Src/gpio.c **** 
  86:Core/Src/gpio.c ****   /*Configure GPIO pin : INJECTOR_OUPUT_4_Pin */
  87:Core/Src/gpio.c ****   GPIO_InitStruct.Pin = INJECTOR_OUPUT_4_Pin;
ARM GAS  C:\Users\alireza\AppData\Local\Temp\cc16atpt.s 			page 6


 200              		.loc 1 87 3 view .LVU55
 201              		.loc 1 87 23 is_stmt 0 view .LVU56
 202 00e0 4FF40043 		mov	r3, #32768
 203 00e4 0593     		str	r3, [sp, #20]
  88:Core/Src/gpio.c ****   GPIO_InitStruct.Mode = GPIO_MODE_OUTPUT_PP;
 204              		.loc 1 88 3 is_stmt 1 view .LVU57
 205              		.loc 1 88 24 is_stmt 0 view .LVU58
 206 00e6 0697     		str	r7, [sp, #24]
  89:Core/Src/gpio.c ****   GPIO_InitStruct.Pull = GPIO_NOPULL;
 207              		.loc 1 89 3 is_stmt 1 view .LVU59
 208              		.loc 1 89 24 is_stmt 0 view .LVU60
 209 00e8 0794     		str	r4, [sp, #28]
  90:Core/Src/gpio.c ****   GPIO_InitStruct.Speed = GPIO_SPEED_FREQ_LOW;
 210              		.loc 1 90 3 is_stmt 1 view .LVU61
 211              		.loc 1 90 25 is_stmt 0 view .LVU62
 212 00ea 0894     		str	r4, [sp, #32]
  91:Core/Src/gpio.c ****   HAL_GPIO_Init(INJECTOR_OUPUT_4_GPIO_Port, &GPIO_InitStruct);
 213              		.loc 1 91 3 is_stmt 1 view .LVU63
 214 00ec 2946     		mov	r1, r5
 215 00ee 4846     		mov	r0, r9
 216 00f0 FFF7FEFF 		bl	HAL_GPIO_Init
 217              	.LVL6:
  92:Core/Src/gpio.c **** 
  93:Core/Src/gpio.c ****   /*Configure GPIO pin : IGNITION_OUTPUT_4_Pin */
  94:Core/Src/gpio.c ****   GPIO_InitStruct.Pin = IGNITION_OUTPUT_4_Pin;
 218              		.loc 1 94 3 view .LVU64
 219              		.loc 1 94 23 is_stmt 0 view .LVU65
 220 00f4 0423     		movs	r3, #4
 221 00f6 0593     		str	r3, [sp, #20]
  95:Core/Src/gpio.c ****   GPIO_InitStruct.Mode = GPIO_MODE_OUTPUT_PP;
 222              		.loc 1 95 3 is_stmt 1 view .LVU66
 223              		.loc 1 95 24 is_stmt 0 view .LVU67
 224 00f8 0697     		str	r7, [sp, #24]
  96:Core/Src/gpio.c ****   GPIO_InitStruct.Pull = GPIO_NOPULL;
 225              		.loc 1 96 3 is_stmt 1 view .LVU68
 226              		.loc 1 96 24 is_stmt 0 view .LVU69
 227 00fa 0794     		str	r4, [sp, #28]
  97:Core/Src/gpio.c ****   GPIO_InitStruct.Speed = GPIO_SPEED_FREQ_LOW;
 228              		.loc 1 97 3 is_stmt 1 view .LVU70
 229              		.loc 1 97 25 is_stmt 0 view .LVU71
 230 00fc 0894     		str	r4, [sp, #32]
  98:Core/Src/gpio.c ****   HAL_GPIO_Init(IGNITION_OUTPUT_4_GPIO_Port, &GPIO_InitStruct);
 231              		.loc 1 98 3 is_stmt 1 view .LVU72
 232 00fe 2946     		mov	r1, r5
 233 0100 4046     		mov	r0, r8
 234 0102 FFF7FEFF 		bl	HAL_GPIO_Init
 235              	.LVL7:
  99:Core/Src/gpio.c **** 
 100:Core/Src/gpio.c ****   /*Configure GPIO pin : SENSOR_VR_1_Pin */
 101:Core/Src/gpio.c ****   GPIO_InitStruct.Pin = SENSOR_VR_1_Pin;
 236              		.loc 1 101 3 view .LVU73
 237              		.loc 1 101 23 is_stmt 0 view .LVU74
 238 0106 4FF48073 		mov	r3, #256
 239 010a 0593     		str	r3, [sp, #20]
 102:Core/Src/gpio.c ****   GPIO_InitStruct.Mode = GPIO_MODE_INPUT;
 240              		.loc 1 102 3 is_stmt 1 view .LVU75
 241              		.loc 1 102 24 is_stmt 0 view .LVU76
ARM GAS  C:\Users\alireza\AppData\Local\Temp\cc16atpt.s 			page 7


 242 010c 0694     		str	r4, [sp, #24]
 103:Core/Src/gpio.c ****   GPIO_InitStruct.Pull = GPIO_NOPULL;
 243              		.loc 1 103 3 is_stmt 1 view .LVU77
 244              		.loc 1 103 24 is_stmt 0 view .LVU78
 245 010e 0794     		str	r4, [sp, #28]
 104:Core/Src/gpio.c ****   HAL_GPIO_Init(SENSOR_VR_1_GPIO_Port, &GPIO_InitStruct);
 246              		.loc 1 104 3 is_stmt 1 view .LVU79
 247 0110 2946     		mov	r1, r5
 248 0112 3046     		mov	r0, r6
 249 0114 FFF7FEFF 		bl	HAL_GPIO_Init
 250              	.LVL8:
 105:Core/Src/gpio.c **** 
 106:Core/Src/gpio.c ****   /*Configure GPIO pin : SENSOR_VR2_Pin */
 107:Core/Src/gpio.c ****   GPIO_InitStruct.Pin = SENSOR_VR2_Pin;
 251              		.loc 1 107 3 view .LVU80
 252              		.loc 1 107 23 is_stmt 0 view .LVU81
 253 0118 4FF40073 		mov	r3, #512
 254 011c 0593     		str	r3, [sp, #20]
 108:Core/Src/gpio.c ****   GPIO_InitStruct.Mode = GPIO_MODE_IT_RISING;
 255              		.loc 1 108 3 is_stmt 1 view .LVU82
 256              		.loc 1 108 24 is_stmt 0 view .LVU83
 257 011e 4FF48813 		mov	r3, #1114112
 258 0122 0693     		str	r3, [sp, #24]
 109:Core/Src/gpio.c ****   GPIO_InitStruct.Pull = GPIO_NOPULL;
 259              		.loc 1 109 3 is_stmt 1 view .LVU84
 260              		.loc 1 109 24 is_stmt 0 view .LVU85
 261 0124 0794     		str	r4, [sp, #28]
 110:Core/Src/gpio.c ****   HAL_GPIO_Init(SENSOR_VR2_GPIO_Port, &GPIO_InitStruct);
 262              		.loc 1 110 3 is_stmt 1 view .LVU86
 263 0126 2946     		mov	r1, r5
 264 0128 3046     		mov	r0, r6
 265 012a FFF7FEFF 		bl	HAL_GPIO_Init
 266              	.LVL9:
 111:Core/Src/gpio.c **** 
 112:Core/Src/gpio.c ****   /* EXTI interrupt init*/
 113:Core/Src/gpio.c ****   HAL_NVIC_SetPriority(EXTI9_5_IRQn, 5, 0);
 267              		.loc 1 113 3 view .LVU87
 268 012e 2246     		mov	r2, r4
 269 0130 0521     		movs	r1, #5
 270 0132 1720     		movs	r0, #23
 271 0134 FFF7FEFF 		bl	HAL_NVIC_SetPriority
 272              	.LVL10:
 114:Core/Src/gpio.c ****   HAL_NVIC_EnableIRQ(EXTI9_5_IRQn);
 273              		.loc 1 114 3 view .LVU88
 274 0138 1720     		movs	r0, #23
 275 013a FFF7FEFF 		bl	HAL_NVIC_EnableIRQ
 276              	.LVL11:
 115:Core/Src/gpio.c **** 
 116:Core/Src/gpio.c **** }
 277              		.loc 1 116 1 is_stmt 0 view .LVU89
 278 013e 0AB0     		add	sp, sp, #40
 279              		.cfi_def_cfa_offset 32
 280              		@ sp needed
 281 0140 BDE8F087 		pop	{r4, r5, r6, r7, r8, r9, r10, pc}
 282              	.L4:
 283              		.align	2
 284              	.L3:
ARM GAS  C:\Users\alireza\AppData\Local\Temp\cc16atpt.s 			page 8


 285 0144 00380240 		.word	1073887232
 286 0148 00040240 		.word	1073873920
 287 014c 00080240 		.word	1073874944
 288 0150 00000240 		.word	1073872896
 289 0154 000C0240 		.word	1073875968
 290              		.cfi_endproc
 291              	.LFE220:
 293              		.text
 294              	.Letext0:
 295              		.file 2 "Drivers/CMSIS/Device/ST/STM32F4xx/Include/stm32f401xc.h"
 296              		.file 3 "C:/Users/alireza/AppData/Roaming/Code/User/globalStorage/bmd.stm32-for-vscode/@xpack-dev-
 297              		.file 4 "C:/Users/alireza/AppData/Roaming/Code/User/globalStorage/bmd.stm32-for-vscode/@xpack-dev-
 298              		.file 5 "Drivers/STM32F4xx_HAL_Driver/Inc/stm32f4xx_hal_gpio.h"
 299              		.file 6 "Drivers/STM32F4xx_HAL_Driver/Inc/stm32f4xx_hal_cortex.h"
ARM GAS  C:\Users\alireza\AppData\Local\Temp\cc16atpt.s 			page 9

