ARM GAS  C:\Users\alireza\AppData\Local\Temp\ccGEJxob.s 			page 1


   1              		.cpu cortex-m4
   2              		.arch armv7e-m
   3              		.fpu fpv4-sp-d16
   4              		.eabi_attribute 27, 1
   5              		.eabi_attribute 28, 1
   6              		.eabi_attribute 20, 1
   7              		.eabi_attribute 21, 1
   8              		.eabi_attribute 23, 3
   9              		.eabi_attribute 24, 1
  10              		.eabi_attribute 25, 1
  11              		.eabi_attribute 26, 1
  12              		.eabi_attribute 30, 1
  13              		.eabi_attribute 34, 1
  14              		.eabi_attribute 18, 4
  15              		.file	"iat.c"
  16              		.text
  17              	.Ltext0:
  18              		.cfi_sections	.debug_frame
  19              		.file 1 "controller/IO/sensors/iat.c"
  20              		.section	.rodata.sensor_iat_init.str1.4,"aMS",%progbits,1
  21              		.align	2
  22              	.LC1:
  23 0000 69617420 		.ascii	"iat sensor type not configured!\000"
  23      73656E73 
  23      6F722074 
  23      79706520 
  23      6E6F7420 
  24              		.section	.text.sensor_iat_init,"ax",%progbits
  25              		.align	1
  26              		.global	sensor_iat_init
  27              		.syntax unified
  28              		.thumb
  29              		.thumb_func
  31              	sensor_iat_init:
  32              	.LFB228:
   1:controller/IO/sensors/iat.c **** #include "iat.h"
   2:controller/IO/sensors/iat.c **** 
   3:controller/IO/sensors/iat.c **** resistor_s sensor_iat_resistor = {0};
   4:controller/IO/sensors/iat.c **** thermistor_s sensor_iat = {0};
   5:controller/IO/sensors/iat.c **** 
   6:controller/IO/sensors/iat.c **** void sensor_iat_init()
   7:controller/IO/sensors/iat.c **** {
  33              		.loc 1 7 1 view -0
  34              		.cfi_startproc
  35              		@ args = 0, pretend = 0, frame = 24
  36              		@ frame_needed = 0, uses_anonymous_args = 0
  37 0000 10B5     		push	{r4, lr}
  38              		.cfi_def_cfa_offset 8
  39              		.cfi_offset 4, -8
  40              		.cfi_offset 14, -4
  41 0002 8AB0     		sub	sp, sp, #40
  42              		.cfi_def_cfa_offset 48
   8:controller/IO/sensors/iat.c ****     switch (configuration.iat_sensor_type)
  43              		.loc 1 8 5 view .LVU1
  44              		.loc 1 8 26 is_stmt 0 view .LVU2
  45 0004 124B     		ldr	r3, .L5
  46 0006 93F85830 		ldrb	r3, [r3, #88]	@ zero_extendqisi2
ARM GAS  C:\Users\alireza\AppData\Local\Temp\ccGEJxob.s 			page 2


  47              		.loc 1 8 5 view .LVU3
  48 000a E3B9     		cbnz	r3, .L2
  49              	.LBB2:
   9:controller/IO/sensors/iat.c ****     {
  10:controller/IO/sensors/iat.c ****         case SENSOR_IAT_TYPE_BOSCH_816:
  11:controller/IO/sensors/iat.c ****         resistor_init(&sensor_iat_resistor, 10000, RESISTOR_PULL_UP, ANALOG_INPUT_SENSOR_IAT_PIN);
  50              		.loc 1 11 9 is_stmt 1 view .LVU4
  51 000c 0522     		movs	r2, #5
  52 000e 0021     		movs	r1, #0
  53 0010 9FED100A 		vldr.32	s0, .L5+4
  54 0014 1048     		ldr	r0, .L5+8
  55 0016 FFF7FEFF 		bl	resistor_init
  56              	.LVL0:
  12:controller/IO/sensors/iat.c ****         thermistor_conf_s bosch_816_iat_conf = 
  57              		.loc 1 12 9 view .LVU5
  58              		.loc 1 12 27 is_stmt 0 view .LVU6
  59 001a 0DF1100C 		add	ip, sp, #16
  60 001e 0F4C     		ldr	r4, .L5+12
  61 0020 0FCC     		ldmia	r4!, {r0, r1, r2, r3}
  62 0022 ACE80F00 		stmia	ip!, {r0, r1, r2, r3}
  63 0026 94E80300 		ldm	r4, {r0, r1}
  64 002a 8CE80300 		stm	ip, {r0, r1}
  13:controller/IO/sensors/iat.c ****         {
  14:controller/IO/sensors/iat.c ****             .resistance_1 = 9395.0f,
  15:controller/IO/sensors/iat.c ****             .resistance_2 = 2056.0f,
  16:controller/IO/sensors/iat.c ****             .resistance_3 = 322.5f,
  17:controller/IO/sensors/iat.c ****             .tempC_1 = -10.0f,
  18:controller/IO/sensors/iat.c ****             .tempC_2 = 25.0f,
  19:controller/IO/sensors/iat.c ****             .tempC_3 = 80.0f
  20:controller/IO/sensors/iat.c ****         };
  21:controller/IO/sensors/iat.c ****         thermistor_init(&sensor_iat, bosch_816_iat_conf);
  65              		.loc 1 21 9 is_stmt 1 view .LVU7
  66 002e 0AAB     		add	r3, sp, #40
  67 0030 13E90700 		ldmdb	r3, {r0, r1, r2}
  68 0034 8DE80700 		stm	sp, {r0, r1, r2}
  69 0038 04AB     		add	r3, sp, #16
  70 003a 0ECB     		ldm	r3, {r1, r2, r3}
  71 003c 0848     		ldr	r0, .L5+16
  72 003e FFF7FEFF 		bl	thermistor_init
  73              	.LVL1:
  22:controller/IO/sensors/iat.c ****         break;
  74              		.loc 1 22 9 view .LVU8
  75              	.L1:
  76              	.LBE2:
  23:controller/IO/sensors/iat.c ****     
  24:controller/IO/sensors/iat.c ****     default:
  25:controller/IO/sensors/iat.c ****         log_error("iat sensor type not configured!");
  26:controller/IO/sensors/iat.c ****         break;
  27:controller/IO/sensors/iat.c ****     }
  28:controller/IO/sensors/iat.c **** }
  77              		.loc 1 28 1 is_stmt 0 view .LVU9
  78 0042 0AB0     		add	sp, sp, #40
  79              		.cfi_remember_state
  80              		.cfi_def_cfa_offset 8
  81              		@ sp needed
  82 0044 10BD     		pop	{r4, pc}
  83              	.L2:
ARM GAS  C:\Users\alireza\AppData\Local\Temp\ccGEJxob.s 			page 3


  84              		.cfi_restore_state
  85              	.LBB3:
  25:controller/IO/sensors/iat.c ****         break;
  86              		.loc 1 25 9 is_stmt 1 view .LVU10
  87 0046 0748     		ldr	r0, .L5+20
  88 0048 FFF7FEFF 		bl	log_error
  89              	.LVL2:
  26:controller/IO/sensors/iat.c ****     }
  90              		.loc 1 26 9 view .LVU11
  91              	.LBE3:
  92              		.loc 1 28 1 is_stmt 0 view .LVU12
  93 004c F9E7     		b	.L1
  94              	.L6:
  95 004e 00BF     		.align	2
  96              	.L5:
  97 0050 00000000 		.word	configuration
  98 0054 00401C46 		.word	1176256512
  99 0058 00000000 		.word	sensor_iat_resistor
 100 005c 00000000 		.word	.LANCHOR0
 101 0060 00000000 		.word	sensor_iat
 102 0064 00000000 		.word	.LC1
 103              		.cfi_endproc
 104              	.LFE228:
 106              		.section	.text.sensor_iat_get,"ax",%progbits
 107              		.align	1
 108              		.global	sensor_iat_get
 109              		.syntax unified
 110              		.thumb
 111              		.thumb_func
 113              	sensor_iat_get:
 114              	.LFB229:
  29:controller/IO/sensors/iat.c **** 
  30:controller/IO/sensors/iat.c **** temperature_t sensor_iat_get()
  31:controller/IO/sensors/iat.c **** {
 115              		.loc 1 31 1 is_stmt 1 view -0
 116              		.cfi_startproc
 117              		@ args = 0, pretend = 0, frame = 0
 118              		@ frame_needed = 0, uses_anonymous_args = 0
 119 0000 08B5     		push	{r3, lr}
 120              		.cfi_def_cfa_offset 8
 121              		.cfi_offset 3, -8
 122              		.cfi_offset 14, -4
  32:controller/IO/sensors/iat.c ****     temperature_t temperature = SENSOR_IAT_FAIL_SAFE;
 123              		.loc 1 32 5 view .LVU14
 124              	.LVL3:
  33:controller/IO/sensors/iat.c ****     switch (configuration.iat_sensor_type)
 125              		.loc 1 33 5 view .LVU15
 126              		.loc 1 33 26 is_stmt 0 view .LVU16
 127 0002 074B     		ldr	r3, .L11
 128 0004 93F85830 		ldrb	r3, [r3, #88]	@ zero_extendqisi2
 129              		.loc 1 33 5 view .LVU17
 130 0008 1BB9     		cbnz	r3, .L8
  34:controller/IO/sensors/iat.c ****     {
  35:controller/IO/sensors/iat.c ****     case SENSOR_IAT_TYPE_BOSCH_816:
  36:controller/IO/sensors/iat.c ****         temperature = thermistor_get_temp(&sensor_iat);
 131              		.loc 1 36 9 is_stmt 1 view .LVU18
 132              		.loc 1 36 23 is_stmt 0 view .LVU19
ARM GAS  C:\Users\alireza\AppData\Local\Temp\ccGEJxob.s 			page 4


 133 000a 0648     		ldr	r0, .L11+4
 134 000c FFF7FEFF 		bl	thermistor_get_temp
 135              	.LVL4:
  37:controller/IO/sensors/iat.c ****         break;
 136              		.loc 1 37 9 is_stmt 1 view .LVU20
 137              	.L7:
  38:controller/IO/sensors/iat.c ****     
  39:controller/IO/sensors/iat.c ****     default:
  40:controller/IO/sensors/iat.c ****         temperature = SENSOR_IAT_FAIL_SAFE;
  41:controller/IO/sensors/iat.c ****         log_warning("iat sensor type not configured!");
  42:controller/IO/sensors/iat.c ****         break;
  43:controller/IO/sensors/iat.c ****     }
  44:controller/IO/sensors/iat.c ****     return temperature;
  45:controller/IO/sensors/iat.c **** }
 138              		.loc 1 45 1 is_stmt 0 view .LVU21
 139 0010 08BD     		pop	{r3, pc}
 140              	.LVL5:
 141              	.L8:
  40:controller/IO/sensors/iat.c ****         log_warning("iat sensor type not configured!");
 142              		.loc 1 40 9 is_stmt 1 view .LVU22
  41:controller/IO/sensors/iat.c ****         break;
 143              		.loc 1 41 9 view .LVU23
 144 0012 0548     		ldr	r0, .L11+8
 145 0014 FFF7FEFF 		bl	log_warning
 146              	.LVL6:
  42:controller/IO/sensors/iat.c ****     }
 147              		.loc 1 42 9 view .LVU24
  40:controller/IO/sensors/iat.c ****         log_warning("iat sensor type not configured!");
 148              		.loc 1 40 21 is_stmt 0 view .LVU25
 149 0018 9FED040A 		vldr.32	s0, .L11+12
  44:controller/IO/sensors/iat.c **** }
 150              		.loc 1 44 5 is_stmt 1 view .LVU26
  44:controller/IO/sensors/iat.c **** }
 151              		.loc 1 44 12 is_stmt 0 view .LVU27
 152 001c F8E7     		b	.L7
 153              	.L12:
 154 001e 00BF     		.align	2
 155              	.L11:
 156 0020 00000000 		.word	configuration
 157 0024 00000000 		.word	sensor_iat
 158 0028 00000000 		.word	.LC1
 159 002c 00002042 		.word	1109393408
 160              		.cfi_endproc
 161              	.LFE229:
 163              		.global	sensor_iat
 164              		.section	.bss.sensor_iat,"aw",%nobits
 165              		.align	2
 168              	sensor_iat:
 169 0000 00000000 		.space	16
 169      00000000 
 169      00000000 
 169      00000000 
 170              		.global	sensor_iat_resistor
 171              		.section	.bss.sensor_iat_resistor,"aw",%nobits
 172              		.align	2
 175              	sensor_iat_resistor:
 176 0000 00000000 		.space	12
ARM GAS  C:\Users\alireza\AppData\Local\Temp\ccGEJxob.s 			page 5


 176      00000000 
 176      00000000 
 177              		.section	.rodata
 178              		.align	2
 179              		.set	.LANCHOR0,. + 0
 180              	.LC0:
 181 0000 000020C1 		.word	-1054867456
 182 0004 0000C841 		.word	1103626240
 183 0008 0000A042 		.word	1117782016
 184 000c 00CC1246 		.word	1175636992
 185 0010 00800045 		.word	1157660672
 186 0014 0040A143 		.word	1134641152
 187              		.text
 188              	.Letext0:
 189              		.file 2 "C:/Users/alireza/AppData/Roaming/Code/User/globalStorage/bmd.stm32-for-vscode/@xpack-dev-
 190              		.file 3 "C:/Users/alireza/AppData/Roaming/Code/User/globalStorage/bmd.stm32-for-vscode/@xpack-dev-
 191              		.file 4 "controller/types.h"
 192              		.file 5 "controller/IO/analog_inputs.h"
 193              		.file 6 "controller/IO/resistor.h"
 194              		.file 7 "controller/IO/thermistor.h"
 195              		.file 8 "controller/enums.h"
 196              		.file 9 "controller/engine_cycle/trigger.h"
 197              		.file 10 "controller/IO/sensors/tps.h"
 198              		.file 11 "controller/utils/pid.h"
 199              		.file 12 "controller/controller.h"
 200              		.file 13 "controller/utils/error_handling.h"
ARM GAS  C:\Users\alireza\AppData\Local\Temp\ccGEJxob.s 			page 6

