ARM GAS  C:\Users\alireza\AppData\Local\Temp\ccDGqr9E.s 			page 1


   1              		.cpu cortex-m4
   2              		.arch armv7e-m
   3              		.fpu fpv4-sp-d16
   4              		.eabi_attribute 27, 1
   5              		.eabi_attribute 28, 1
   6              		.eabi_attribute 20, 1
   7              		.eabi_attribute 21, 1
   8              		.eabi_attribute 23, 3
   9              		.eabi_attribute 24, 1
  10              		.eabi_attribute 25, 1
  11              		.eabi_attribute 26, 1
  12              		.eabi_attribute 30, 1
  13              		.eabi_attribute 34, 1
  14              		.eabi_attribute 18, 4
  15              		.file	"ops.c"
  16              		.text
  17              	.Ltext0:
  18              		.cfi_sections	.debug_frame
  19              		.file 1 "controller/IO/sensors/ops.c"
  20              		.section	.text.sensor_ops_get,"ax",%progbits
  21              		.align	1
  22              		.global	sensor_ops_get
  23              		.syntax unified
  24              		.thumb
  25              		.thumb_func
  27              	sensor_ops_get:
  28              	.LFB224:
   1:controller/IO/sensors/ops.c **** #include "ops.h"
   2:controller/IO/sensors/ops.c **** 
   3:controller/IO/sensors/ops.c **** 
   4:controller/IO/sensors/ops.c **** bool sensor_ops_get()
   5:controller/IO/sensors/ops.c **** {
  29              		.loc 1 5 1 view -0
  30              		.cfi_startproc
  31              		@ args = 0, pretend = 0, frame = 0
  32              		@ frame_needed = 0, uses_anonymous_args = 0
  33 0000 08B5     		push	{r3, lr}
  34              		.cfi_def_cfa_offset 8
  35              		.cfi_offset 3, -8
  36              		.cfi_offset 14, -4
   6:controller/IO/sensors/ops.c ****     static bool state = false;
  37              		.loc 1 6 5 view .LVU1
   7:controller/IO/sensors/ops.c ****     static const uint16_t threshold_high = 2500;
  38              		.loc 1 7 5 view .LVU2
   8:controller/IO/sensors/ops.c ****     static const uint16_t threshold_low = 1800;
  39              		.loc 1 8 5 view .LVU3
   9:controller/IO/sensors/ops.c **** 
  10:controller/IO/sensors/ops.c ****     uint16_t raw_adc_value = 0;
  40              		.loc 1 10 5 view .LVU4
  41              	.LVL0:
  11:controller/IO/sensors/ops.c ****     raw_adc_value = analog_inputs_get_data(ANALOG_INPUT_SENSOR_OIL_PIN);
  42              		.loc 1 11 5 view .LVU5
  43              		.loc 1 11 21 is_stmt 0 view .LVU6
  44 0002 0720     		movs	r0, #7
  45 0004 FFF7FEFF 		bl	analog_inputs_get_data
  46              	.LVL1:
  12:controller/IO/sensors/ops.c **** 
ARM GAS  C:\Users\alireza\AppData\Local\Temp\ccDGqr9E.s 			page 2


  13:controller/IO/sensors/ops.c ****     if (raw_adc_value > threshold_high)
  47              		.loc 1 13 5 is_stmt 1 view .LVU7
  48              		.loc 1 13 8 is_stmt 0 view .LVU8
  49 0008 40F6C413 		movw	r3, #2500
  50 000c 9842     		cmp	r0, r3
  51 000e 05D9     		bls	.L2
  14:controller/IO/sensors/ops.c ****     {
  15:controller/IO/sensors/ops.c ****         state = true;
  52              		.loc 1 15 9 is_stmt 1 view .LVU9
  53              		.loc 1 15 15 is_stmt 0 view .LVU10
  54 0010 064B     		ldr	r3, .L5
  55 0012 0122     		movs	r2, #1
  56 0014 1A70     		strb	r2, [r3]
  57              	.L3:
  16:controller/IO/sensors/ops.c ****     }
  17:controller/IO/sensors/ops.c ****     else if (raw_adc_value < threshold_low)
  18:controller/IO/sensors/ops.c ****     {
  19:controller/IO/sensors/ops.c ****         state = false;
  20:controller/IO/sensors/ops.c ****     }
  21:controller/IO/sensors/ops.c **** 
  22:controller/IO/sensors/ops.c ****     return state;
  58              		.loc 1 22 5 is_stmt 1 view .LVU11
  23:controller/IO/sensors/ops.c **** }...
  59              		.loc 1 23 1 is_stmt 0 view .LVU12
  60 0016 054B     		ldr	r3, .L5
  61 0018 1878     		ldrb	r0, [r3]	@ zero_extendqisi2
  62              	.LVL2:
  63              		.loc 1 23 1 view .LVU13
  64 001a 08BD     		pop	{r3, pc}
  65              	.LVL3:
  66              	.L2:
  17:controller/IO/sensors/ops.c ****     else if (raw_adc_value < threshold_low)
  67              		.loc 1 17 10 is_stmt 1 view .LVU14
  17:controller/IO/sensors/ops.c ****     else if (raw_adc_value < threshold_low)
  68              		.loc 1 17 13 is_stmt 0 view .LVU15
  69 001c B0F5E16F 		cmp	r0, #1800
  70 0020 F9D2     		bcs	.L3
  19:controller/IO/sensors/ops.c ****         state = false;
  71              		.loc 1 19 9 is_stmt 1 view .LVU16
  19:controller/IO/sensors/ops.c ****         state = false;
  72              		.loc 1 19 15 is_stmt 0 view .LVU17
  73 0022 024B     		ldr	r3, .L5
  74 0024 0022     		movs	r2, #0
  75 0026 1A70     		strb	r2, [r3]
  76 0028 F5E7     		b	.L3
  77              	.L6:
  78 002a 00BF     		.align	2
  79              	.L5:
  80 002c 00000000 		.word	state.0
  81              		.cfi_endproc
  82              	.LFE224:
  84              		.section	.bss.state.0,"aw",%nobits
  87              	state.0:
  88 0000 00       		.space	1
  89              		.text
  90              	.Letext0:
  91              		.file 2 "C:/Users/alireza/AppData/Roaming/Code/User/globalStorage/bmd.stm32-for-vscode/@xpack-dev-
ARM GAS  C:\Users\alireza\AppData\Local\Temp\ccDGqr9E.s 			page 3


  92              		.file 3 "C:/Users/alireza/AppData/Roaming/Code/User/globalStorage/bmd.stm32-for-vscode/@xpack-dev-
  93              		.file 4 "controller/IO/analog_inputs.h"
ARM GAS  C:\Users\alireza\AppData\Local\Temp\ccDGqr9E.s 			page 4


DEFINED SYMBOLS
                            *ABS*:00000000 ops.c
C:\Users\alireza\AppData\Local\Temp\ccDGqr9E.s:21     .text.sensor_ops_get:00000000 $t
C:\Users\alireza\AppData\Local\Temp\ccDGqr9E.s:27     .text.sensor_ops_get:00000000 sensor_ops_get
C:\Users\alireza\AppData\Local\Temp\ccDGqr9E.s:80     .text.sensor_ops_get:0000002c $d
C:\Users\alireza\AppData\Local\Temp\ccDGqr9E.s:87     .bss.state.0:00000000 state.0
C:\Users\alireza\AppData\Local\Temp\ccDGqr9E.s:88     .bss.state.0:00000000 $d

UNDEFINED SYMBOLS
analog_inputs_get_data
