ARM GAS  C:\Users\alireza\AppData\Local\Temp\ccfNekWF.s 			page 1


   1              		.cpu cortex-m4
   2              		.arch armv7e-m
   3              		.fpu fpv4-sp-d16
   4              		.eabi_attribute 27, 1
   5              		.eabi_attribute 28, 1
   6              		.eabi_attribute 20, 1
   7              		.eabi_attribute 21, 1
   8              		.eabi_attribute 23, 3
   9              		.eabi_attribute 24, 1
  10              		.eabi_attribute 25, 1
  11              		.eabi_attribute 26, 1
  12              		.eabi_attribute 30, 1
  13              		.eabi_attribute 34, 1
  14              		.eabi_attribute 18, 4
  15              		.file	"resistor.c"
  16              		.text
  17              	.Ltext0:
  18              		.cfi_sections	.debug_frame
  19              		.file 1 "controller/IO/resistor.c"
  20              		.section	.rodata.resistor_init.str1.4,"aMS",%progbits,1
  21              		.align	2
  22              	.LC0:
  23 0000 52657369 		.ascii	"Resistor init failed!\000"
  23      73746F72 
  23      20696E69 
  23      74206661 
  23      696C6564 
  24              		.section	.text.resistor_init,"ax",%progbits
  25              		.align	1
  26              		.global	resistor_init
  27              		.syntax unified
  28              		.thumb
  29              		.thumb_func
  31              	resistor_init:
  32              	.LVL0:
  33              	.LFB232:
   1:controller/IO/resistor.c **** #include "resistor.h"
   2:controller/IO/resistor.c **** #include "float.h"
   3:controller/IO/resistor.c **** void resistor_init(resistor_t* resistor, float pull_resistor, resistor_pull_type_t pull_type, analo
   4:controller/IO/resistor.c **** {
  34              		.loc 1 4 1 view -0
  35              		.cfi_startproc
  36              		@ args = 0, pretend = 0, frame = 0
  37              		@ frame_needed = 0, uses_anonymous_args = 0
  38              		.loc 1 4 1 is_stmt 0 view .LVU1
  39 0000 08B5     		push	{r3, lr}
  40              		.cfi_def_cfa_offset 8
  41              		.cfi_offset 3, -8
  42              		.cfi_offset 14, -4
   5:controller/IO/resistor.c ****     if (resistor == NULL)
  43              		.loc 1 5 5 is_stmt 1 view .LVU2
  44              		.loc 1 5 8 is_stmt 0 view .LVU3
  45 0002 20B1     		cbz	r0, .L5
   6:controller/IO/resistor.c ****     {
   7:controller/IO/resistor.c ****         log_error("Resistor init failed!");
   8:controller/IO/resistor.c ****         return;
   9:controller/IO/resistor.c ****     }
ARM GAS  C:\Users\alireza\AppData\Local\Temp\ccfNekWF.s 			page 2


  10:controller/IO/resistor.c ****     resistor->pull_resistor = pull_resistor;
  46              		.loc 1 10 5 is_stmt 1 view .LVU4
  47              		.loc 1 10 29 is_stmt 0 view .LVU5
  48 0004 80ED010A 		vstr.32	s0, [r0, #4]
  11:controller/IO/resistor.c ****     resistor->pull_type = pull_type;
  49              		.loc 1 11 5 is_stmt 1 view .LVU6
  50              		.loc 1 11 25 is_stmt 0 view .LVU7
  51 0008 0170     		strb	r1, [r0]
  12:controller/IO/resistor.c ****     resistor->analog_input = analog_input;
  52              		.loc 1 12 5 is_stmt 1 view .LVU8
  53              		.loc 1 12 28 is_stmt 0 view .LVU9
  54 000a 0272     		strb	r2, [r0, #8]
  55              	.LVL1:
  56              	.L1:
  13:controller/IO/resistor.c **** }
  57              		.loc 1 13 1 view .LVU10
  58 000c 08BD     		pop	{r3, pc}
  59              	.LVL2:
  60              	.L5:
   7:controller/IO/resistor.c ****         return;
  61              		.loc 1 7 9 is_stmt 1 view .LVU11
  62 000e 0248     		ldr	r0, .L6
  63              	.LVL3:
   7:controller/IO/resistor.c ****         return;
  64              		.loc 1 7 9 is_stmt 0 view .LVU12
  65 0010 FFF7FEFF 		bl	log_error
  66              	.LVL4:
   8:controller/IO/resistor.c ****     }
  67              		.loc 1 8 9 is_stmt 1 view .LVU13
  68 0014 FAE7     		b	.L1
  69              	.L7:
  70 0016 00BF     		.align	2
  71              	.L6:
  72 0018 00000000 		.word	.LC0
  73              		.cfi_endproc
  74              	.LFE232:
  76              		.section	.text.resistor_get_resistance,"ax",%progbits
  77              		.align	1
  78              		.global	resistor_get_resistance
  79              		.syntax unified
  80              		.thumb
  81              		.thumb_func
  83              	resistor_get_resistance:
  84              	.LVL5:
  85              	.LFB233:
  14:controller/IO/resistor.c **** 
  15:controller/IO/resistor.c **** /**
  16:controller/IO/resistor.c ****  * @todo div by zero will break this!
  17:controller/IO/resistor.c ****  */
  18:controller/IO/resistor.c **** float resistor_get_resistance(const resistor_t *resistor)
  19:controller/IO/resistor.c **** {
  86              		.loc 1 19 1 view -0
  87              		.cfi_startproc
  88              		@ args = 0, pretend = 0, frame = 8
  89              		@ frame_needed = 0, uses_anonymous_args = 0
  90              		.loc 1 19 1 is_stmt 0 view .LVU15
  91 0000 10B5     		push	{r4, lr}
ARM GAS  C:\Users\alireza\AppData\Local\Temp\ccfNekWF.s 			page 3


  92              		.cfi_def_cfa_offset 8
  93              		.cfi_offset 4, -8
  94              		.cfi_offset 14, -4
  95 0002 82B0     		sub	sp, sp, #8
  96              		.cfi_def_cfa_offset 16
  97 0004 0446     		mov	r4, r0
  20:controller/IO/resistor.c ****     volatile float voltage = analog_inputs_get_voltage(resistor->analog_input);
  98              		.loc 1 20 5 is_stmt 1 view .LVU16
  99              		.loc 1 20 30 is_stmt 0 view .LVU17
 100 0006 007A     		ldrb	r0, [r0, #8]	@ zero_extendqisi2
 101              	.LVL6:
 102              		.loc 1 20 30 view .LVU18
 103 0008 FFF7FEFF 		bl	analog_inputs_get_voltage
 104              	.LVL7:
 105              		.loc 1 20 20 discriminator 1 view .LVU19
 106 000c 8DED010A 		vstr.32	s0, [sp, #4]
  21:controller/IO/resistor.c ****     // simple check to see if the sensor is open circuit or not
  22:controller/IO/resistor.c ****     if (!IS_IN_RANGE(voltage, 0.05f * CONTROLLER_REF_VOLTAGE, 0.95f * CONTROLLER_REF_VOLTAGE))
 107              		.loc 1 22 5 is_stmt 1 view .LVU20
 108              		.loc 1 22 10 is_stmt 0 view .LVU21
 109 0010 9DED017A 		vldr.32	s14, [sp, #4]
 110              		.loc 1 22 8 view .LVU22
 111 0014 F5EE007A 		vmov.f32	s15, #2.5e-1
 112 0018 B4EEE77A 		vcmpe.f32	s14, s15
 113 001c F1EE10FA 		vmrs	APSR_nzcv, FPSCR
 114 0020 2FDB     		blt	.L18
 115              		.loc 1 22 10 discriminator 1 view .LVU23
 116 0022 9DED017A 		vldr.32	s14, [sp, #4]
 117              		.loc 1 22 9 discriminator 1 view .LVU24
 118 0026 F1EE037A 		vmov.f32	s15, #4.75e+0
 119 002a B4EEE77A 		vcmpe.f32	s14, s15
 120 002e F1EE10FA 		vmrs	APSR_nzcv, FPSCR
 121 0032 2AD8     		bhi	.L19
  23:controller/IO/resistor.c ****     {
  24:controller/IO/resistor.c ****         return NAN;
  25:controller/IO/resistor.c ****     }
  26:controller/IO/resistor.c ****     if (resistor->pull_type == RESISTOR_PULL_UP) {
 122              		.loc 1 26 5 is_stmt 1 view .LVU25
 123              		.loc 1 26 17 is_stmt 0 view .LVU26
 124 0034 2378     		ldrb	r3, [r4]	@ zero_extendqisi2
 125              		.loc 1 26 8 view .LVU27
 126 0036 ABB1     		cbz	r3, .L21
  27:controller/IO/resistor.c ****         return (voltage * (float)resistor->pull_resistor) / ((float)CONTROLLER_REF_VOLTAGE - voltag
  28:controller/IO/resistor.c ****     } else { // PULL_DOWN
  29:controller/IO/resistor.c ****         if(voltage == 0) return INFINITY;
 127              		.loc 1 29 9 is_stmt 1 view .LVU28
 128              		.loc 1 29 20 is_stmt 0 view .LVU29
 129 0038 DDED017A 		vldr.32	s15, [sp, #4]
 130              		.loc 1 29 11 view .LVU30
 131 003c F5EE407A 		vcmp.f32	s15, #0
 132 0040 F1EE10FA 		vmrs	APSR_nzcv, FPSCR
 133 0044 24D0     		beq	.L15
  30:controller/IO/resistor.c ****         return ((CONTROLLER_REF_VOLTAGE - voltage) * (float)resistor->pull_resistor) / voltage;
 134              		.loc 1 30 9 is_stmt 1 view .LVU31
 135              		.loc 1 30 41 is_stmt 0 view .LVU32
 136 0046 9DED017A 		vldr.32	s14, [sp, #4]
 137 004a F1EE047A 		vmov.f32	s15, #5.0e+0
ARM GAS  C:\Users\alireza\AppData\Local\Temp\ccfNekWF.s 			page 4


 138 004e 77EEC77A 		vsub.f32	s15, s15, s14
 139              		.loc 1 30 69 view .LVU33
 140 0052 94ED017A 		vldr.32	s14, [r4, #4]
 141              		.loc 1 30 52 view .LVU34
 142 0056 67EE877A 		vmul.f32	s15, s15, s14
 143              		.loc 1 30 86 view .LVU35
 144 005a 9DED017A 		vldr.32	s14, [sp, #4]
 145 005e 87EE870A 		vdiv.f32	s0, s15, s14
 146 0062 10E0     		b	.L8
 147              	.L21:
  27:controller/IO/resistor.c ****         return (voltage * (float)resistor->pull_resistor) / ((float)CONTROLLER_REF_VOLTAGE - voltag
 148              		.loc 1 27 9 is_stmt 1 view .LVU36
  27:controller/IO/resistor.c ****         return (voltage * (float)resistor->pull_resistor) / ((float)CONTROLLER_REF_VOLTAGE - voltag
 149              		.loc 1 27 42 is_stmt 0 view .LVU37
 150 0064 94ED017A 		vldr.32	s14, [r4, #4]
  27:controller/IO/resistor.c ****         return (voltage * (float)resistor->pull_resistor) / ((float)CONTROLLER_REF_VOLTAGE - voltag
 151              		.loc 1 27 25 view .LVU38
 152 0068 DDED017A 		vldr.32	s15, [sp, #4]
 153 006c 27EE277A 		vmul.f32	s14, s14, s15
  27:controller/IO/resistor.c ****         return (voltage * (float)resistor->pull_resistor) / ((float)CONTROLLER_REF_VOLTAGE - voltag
 154              		.loc 1 27 92 view .LVU39
 155 0070 DDED016A 		vldr.32	s13, [sp, #4]
 156 0074 F1EE047A 		vmov.f32	s15, #5.0e+0
 157 0078 77EEE67A 		vsub.f32	s15, s15, s13
  27:controller/IO/resistor.c ****         return (voltage * (float)resistor->pull_resistor) / ((float)CONTROLLER_REF_VOLTAGE - voltag
 158              		.loc 1 27 59 view .LVU40
 159 007c 87EE270A 		vdiv.f32	s0, s14, s15
 160 0080 01E0     		b	.L8
 161              	.L18:
  24:controller/IO/resistor.c ****     }
 162              		.loc 1 24 16 view .LVU41
 163 0082 9FED050A 		vldr.32	s0, .L22
 164              	.L8:
  31:controller/IO/resistor.c ****     }
  32:controller/IO/resistor.c **** }
 165              		.loc 1 32 1 view .LVU42
 166 0086 02B0     		add	sp, sp, #8
 167              		.cfi_remember_state
 168              		.cfi_def_cfa_offset 8
 169              		@ sp needed
 170 0088 10BD     		pop	{r4, pc}
 171              	.LVL8:
 172              	.L19:
 173              		.cfi_restore_state
  24:controller/IO/resistor.c ****     }
 174              		.loc 1 24 16 view .LVU43
 175 008a 9FED030A 		vldr.32	s0, .L22
 176 008e FAE7     		b	.L8
 177              	.L15:
  29:controller/IO/resistor.c ****         return ((CONTROLLER_REF_VOLTAGE - voltage) * (float)resistor->pull_resistor) / voltage;
 178              		.loc 1 29 33 discriminator 1 view .LVU44
 179 0090 9FED020A 		vldr.32	s0, .L22+4
 180 0094 F7E7     		b	.L8
 181              	.L23:
 182 0096 00BF     		.align	2
 183              	.L22:
 184 0098 0000C07F 		.word	2143289344
ARM GAS  C:\Users\alireza\AppData\Local\Temp\ccfNekWF.s 			page 5


 185 009c 0000807F 		.word	2139095040
 186              		.cfi_endproc
 187              	.LFE233:
 189              		.text
 190              	.Letext0:
 191              		.file 2 "controller/types.h"
 192              		.file 3 "controller/IO/analog_inputs.h"
 193              		.file 4 "controller/IO/resistor.h"
 194              		.file 5 "controller/utils/error_handling.h"
ARM GAS  C:\Users\alireza\AppData\Local\Temp\ccfNekWF.s 			page 6

