ARM GAS  C:\Users\alireza\AppData\Local\Temp\cckpdMeE.s 			page 1


   1              		.cpu cortex-m4
   2              		.arch armv7e-m
   3              		.fpu fpv4-sp-d16
   4              		.eabi_attribute 27, 1
   5              		.eabi_attribute 28, 1
   6              		.eabi_attribute 20, 1
   7              		.eabi_attribute 21, 1
   8              		.eabi_attribute 23, 3
   9              		.eabi_attribute 24, 1
  10              		.eabi_attribute 25, 1
  11              		.eabi_attribute 26, 1
  12              		.eabi_attribute 30, 1
  13              		.eabi_attribute 34, 1
  14              		.eabi_attribute 18, 4
  15              		.file	"trigger.c"
  16              		.text
  17              	.Ltext0:
  18              		.cfi_sections	.debug_frame
  19              		.file 1 "controller/engine_cycle/trigger.c"
  20              		.section	.text.set_filtering,"ax",%progbits
  21              		.align	1
  22              		.global	set_filtering
  23              		.syntax unified
  24              		.thumb
  25              		.thumb_func
  27              	set_filtering:
  28              	.LVL0:
  29              	.LFB232:
   1:controller/engine_cycle/trigger.c **** #include "trigger.h"
   2:controller/engine_cycle/trigger.c **** #include "controller.h"
   3:controller/engine_cycle/trigger.c **** 
   4:controller/engine_cycle/trigger.c **** 
   5:controller/engine_cycle/trigger.c **** 
   6:controller/engine_cycle/trigger.c **** void set_filtering(trigger_t *trigger)
   7:controller/engine_cycle/trigger.c **** {
  30              		.loc 1 7 1 view -0
  31              		.cfi_startproc
  32              		@ args = 0, pretend = 0, frame = 0
  33              		@ frame_needed = 0, uses_anonymous_args = 0
  34              		@ link register save eliminated.
   8:controller/engine_cycle/trigger.c ****   switch (*(trigger->filtering))
  35              		.loc 1 8 3 view .LVU1
  36              		.loc 1 8 20 is_stmt 0 view .LVU2
  37 0000 4368     		ldr	r3, [r0, #4]
  38              		.loc 1 8 11 view .LVU3
  39 0002 1B78     		ldrb	r3, [r3]	@ zero_extendqisi2
  40              		.loc 1 8 3 view .LVU4
  41 0004 032B     		cmp	r3, #3
  42 0006 13D8     		bhi	.L2
  43 0008 DFE803F0 		tbb	[pc, r3]
  44              	.L4:
  45 000c 02       		.byte	(.L7-.L4)/2
  46 000d 05       		.byte	(.L6-.L4)/2
  47 000e 09       		.byte	(.L5-.L4)/2
  48 000f 0C       		.byte	(.L3-.L4)/2
  49              		.p2align 1
  50              	.L7:
ARM GAS  C:\Users\alireza\AppData\Local\Temp\cckpdMeE.s 			page 2


   9:controller/engine_cycle/trigger.c ****   {
  10:controller/engine_cycle/trigger.c ****   case TRIGGER_FILTERING_NONE:
  11:controller/engine_cycle/trigger.c ****     trigger->_trigger_filter_time_us = 0;
  51              		.loc 1 11 5 is_stmt 1 view .LVU5
  52              		.loc 1 11 38 is_stmt 0 view .LVU6
  53 0010 0023     		movs	r3, #0
  54 0012 8360     		str	r3, [r0, #8]
  12:controller/engine_cycle/trigger.c ****     break;
  55              		.loc 1 12 5 is_stmt 1 view .LVU7
  56 0014 7047     		bx	lr
  57              	.L6:
  13:controller/engine_cycle/trigger.c ****   case TRIGGER_FILTERING_LITE:
  14:controller/engine_cycle/trigger.c ****     trigger->_trigger_filter_time_us = trigger->_current_tooth_gap_us / 4U;
  58              		.loc 1 14 5 view .LVU8
  59              		.loc 1 14 47 is_stmt 0 view .LVU9
  60 0016 8369     		ldr	r3, [r0, #24]
  61              		.loc 1 14 71 view .LVU10
  62 0018 9B08     		lsrs	r3, r3, #2
  63              		.loc 1 14 38 view .LVU11
  64 001a 8360     		str	r3, [r0, #8]
  15:controller/engine_cycle/trigger.c ****     break;
  65              		.loc 1 15 5 is_stmt 1 view .LVU12
  66 001c 7047     		bx	lr
  67              	.L5:
  16:controller/engine_cycle/trigger.c ****   case TRIGGER_FILTERING_MEDIUM:
  17:controller/engine_cycle/trigger.c ****     trigger->_trigger_filter_time_us = trigger->_current_tooth_gap_us / 1U;
  68              		.loc 1 17 5 view .LVU13
  69              		.loc 1 17 47 is_stmt 0 view .LVU14
  70 001e 8369     		ldr	r3, [r0, #24]
  71              		.loc 1 17 38 view .LVU15
  72 0020 8360     		str	r3, [r0, #8]
  18:controller/engine_cycle/trigger.c ****     break;
  73              		.loc 1 18 5 is_stmt 1 view .LVU16
  74 0022 7047     		bx	lr
  75              	.L3:
  19:controller/engine_cycle/trigger.c ****   case TRIGGER_FILTERING_AGGRESSIVE:
  20:controller/engine_cycle/trigger.c ****     trigger->_trigger_filter_time_us = trigger->_current_tooth_gap_us * 3 / 4;
  76              		.loc 1 20 5 view .LVU17
  77              		.loc 1 20 47 is_stmt 0 view .LVU18
  78 0024 8369     		ldr	r3, [r0, #24]
  79              		.loc 1 20 71 view .LVU19
  80 0026 03EB4303 		add	r3, r3, r3, lsl #1
  81              		.loc 1 20 75 view .LVU20
  82 002a 9B08     		lsrs	r3, r3, #2
  83              		.loc 1 20 38 view .LVU21
  84 002c 8360     		str	r3, [r0, #8]
  21:controller/engine_cycle/trigger.c ****     break;
  85              		.loc 1 21 5 is_stmt 1 view .LVU22
  86 002e 7047     		bx	lr
  87              	.L2:
  22:controller/engine_cycle/trigger.c ****   default:
  23:controller/engine_cycle/trigger.c ****     // Handle invalid filtering level
  24:controller/engine_cycle/trigger.c ****     trigger->_trigger_filter_time_us = 0;
  88              		.loc 1 24 5 view .LVU23
  89              		.loc 1 24 38 is_stmt 0 view .LVU24
  90 0030 0023     		movs	r3, #0
  91 0032 8360     		str	r3, [r0, #8]
ARM GAS  C:\Users\alireza\AppData\Local\Temp\cckpdMeE.s 			page 3


  25:controller/engine_cycle/trigger.c ****     break;
  92              		.loc 1 25 5 is_stmt 1 view .LVU25
  26:controller/engine_cycle/trigger.c ****   }
  27:controller/engine_cycle/trigger.c **** }
  93              		.loc 1 27 1 is_stmt 0 view .LVU26
  94 0034 7047     		bx	lr
  95              		.cfi_endproc
  96              	.LFE232:
  98              		.section	.rodata.trigger_init.str1.4,"aMS",%progbits,1
  99              		.align	2
 100              	.LC0:
 101 0000 54726967 		.ascii	"Trigger initialization failed. Trigger is NULL.\000"
 101      67657220 
 101      696E6974 
 101      69616C69 
 101      7A617469 
 102              		.align	2
 103              	.LC1:
 104 0030 54726967 		.ascii	"Trigger initialization failed. Wheel type not recog"
 104      67657220 
 104      696E6974 
 104      69616C69 
 104      7A617469 
 105 0063 6E697A65 		.ascii	"nized.\000"
 105      642E00
 106 006a 0000     		.align	2
 107              	.LC2:
 108 006c 54726967 		.ascii	"Trigger initialization failed. unknown trigger numb"
 108      67657220 
 108      696E6974 
 108      69616C69 
 108      7A617469 
 109 009f 65722E00 		.ascii	"er.\000"
 110              		.section	.text.trigger_init,"ax",%progbits
 111              		.align	1
 112              		.global	trigger_init
 113              		.syntax unified
 114              		.thumb
 115              		.thumb_func
 117              	trigger_init:
 118              	.LVL1:
 119              	.LFB233:
  28:controller/engine_cycle/trigger.c **** 
  29:controller/engine_cycle/trigger.c **** void trigger_init(trigger_t *trigger, trigger_wheel_type_t wheel_type, uint8_t *filtering, status_t
  30:controller/engine_cycle/trigger.c **** {
 120              		.loc 1 30 1 is_stmt 1 view -0
 121              		.cfi_startproc
 122              		@ args = 4, pretend = 0, frame = 0
 123              		@ frame_needed = 0, uses_anonymous_args = 0
 124              		.loc 1 30 1 is_stmt 0 view .LVU28
 125 0000 10B5     		push	{r4, lr}
 126              		.cfi_def_cfa_offset 8
 127              		.cfi_offset 4, -8
 128              		.cfi_offset 14, -4
  31:controller/engine_cycle/trigger.c ****   bool temp_status = true;
 129              		.loc 1 31 3 is_stmt 1 view .LVU29
 130              	.LVL2:
ARM GAS  C:\Users\alireza\AppData\Local\Temp\cckpdMeE.s 			page 4


  32:controller/engine_cycle/trigger.c ****   if (trigger == NULL)
 131              		.loc 1 32 3 view .LVU30
 132              		.loc 1 32 6 is_stmt 0 view .LVU31
 133 0002 80B1     		cbz	r0, .L23
 134 0004 0446     		mov	r4, r0
  33:controller/engine_cycle/trigger.c ****   {
  34:controller/engine_cycle/trigger.c ****     change_bit(&runtime.status, STATUS_TRIGGER_ERROR, true);
  35:controller/engine_cycle/trigger.c ****     log_error("Trigger initialization failed. Trigger is NULL.");
  36:controller/engine_cycle/trigger.c ****     return;
  37:controller/engine_cycle/trigger.c ****   }
  38:controller/engine_cycle/trigger.c ****   trigger->filtering = filtering;
 135              		.loc 1 38 3 is_stmt 1 view .LVU32
 136              		.loc 1 38 22 is_stmt 0 view .LVU33
 137 0006 4260     		str	r2, [r0, #4]
  39:controller/engine_cycle/trigger.c ****   trigger->status_synced_index = sync_status_bit;
 138              		.loc 1 39 3 is_stmt 1 view .LVU34
 139              		.loc 1 39 32 is_stmt 0 view .LVU35
 140 0008 8370     		strb	r3, [r0, #2]
  40:controller/engine_cycle/trigger.c **** 
  41:controller/engine_cycle/trigger.c ****   switch (wheel_type)
 141              		.loc 1 41 3 is_stmt 1 view .LVU36
 142 000a A9B1     		cbz	r1, .L12
 143 000c 0129     		cmp	r1, #1
 144 000e 28D0     		beq	.L13
  42:controller/engine_cycle/trigger.c ****   {
  43:controller/engine_cycle/trigger.c ****   case TW_58_TOOTH_2_MISSING:
  44:controller/engine_cycle/trigger.c ****     trigger->_missing_teeth = 2;
  45:controller/engine_cycle/trigger.c ****     trigger->_full_teeth = 60;
  46:controller/engine_cycle/trigger.c ****     break;
  47:controller/engine_cycle/trigger.c **** 
  48:controller/engine_cycle/trigger.c ****   case TW_29_TOOTH_1_MISSING:
  49:controller/engine_cycle/trigger.c ****     trigger->_missing_teeth = 1;
  50:controller/engine_cycle/trigger.c ****     trigger->_full_teeth = 29;
  51:controller/engine_cycle/trigger.c ****     break;
  52:controller/engine_cycle/trigger.c **** 
  53:controller/engine_cycle/trigger.c ****   default:
  54:controller/engine_cycle/trigger.c ****     trigger->initialized = temp_status;
 145              		.loc 1 54 5 view .LVU37
 146              		.loc 1 54 26 is_stmt 0 view .LVU38
 147 0010 0123     		movs	r3, #1
 148              	.LVL3:
 149              		.loc 1 54 26 view .LVU39
 150 0012 4370     		strb	r3, [r0, #1]
  55:controller/engine_cycle/trigger.c ****     change_bit(&runtime.status, STATUS_TRIGGER_ERROR, true);
 151              		.loc 1 55 5 is_stmt 1 view .LVU40
 152              	.LVL4:
 153              	.LBB24:
 154              	.LBI24:
 155              		.file 2 "controller/utils/utils.h"
   1:controller/utils/utils.h **** /**
   2:controller/utils/utils.h ****  * @file utils.h
   3:controller/utils/utils.h ****  * @brief Header file containing utility functions and definitions for the smart generator controll
   4:controller/utils/utils.h ****  *
   5:controller/utils/utils.h ****  * This file provides declarations for utility functions and macros that are
   6:controller/utils/utils.h ****  * used throughout the firmware to support various functionalities.
   7:controller/utils/utils.h ****  *
   8:controller/utils/utils.h ****  * @note Ensure that this file is included wherever utility functions are required.
ARM GAS  C:\Users\alireza\AppData\Local\Temp\cckpdMeE.s 			page 5


   9:controller/utils/utils.h ****  */
  10:controller/utils/utils.h **** #ifndef UTILS_H
  11:controller/utils/utils.h **** #define UTILS_H
  12:controller/utils/utils.h **** 
  13:controller/utils/utils.h **** #include "types.h"
  14:controller/utils/utils.h **** #include "math.h"
  15:controller/utils/utils.h **** #define IS_IN_RANGE(value, min, max) ((value) >= (min) && (value) <= (max))
  16:controller/utils/utils.h **** #define ABS(value) ((value) < 0 ? -(value) : (value))
  17:controller/utils/utils.h **** #define CLAMP(value, min, max) ((value) < (min) ? (min) : ((value) > (max) ? (max) : (value)))
  18:controller/utils/utils.h **** 
  19:controller/utils/utils.h **** static inline void change_bit(uint32_t *var, uint8_t bit, bool state)
 156              		.loc 2 19 20 view .LVU41
 157              	.LBB25:
  20:controller/utils/utils.h **** {
  21:controller/utils/utils.h ****     if (bit > 31)
 158              		.loc 2 21 5 view .LVU42
  22:controller/utils/utils.h ****     {
  23:controller/utils/utils.h ****         return;
  24:controller/utils/utils.h ****     }
  25:controller/utils/utils.h ****     if (state)
 159              		.loc 2 25 5 view .LVU43
  26:controller/utils/utils.h ****     {
  27:controller/utils/utils.h ****         *var |= (1u << bit);
 160              		.loc 2 27 9 view .LVU44
 161 0014 224A     		ldr	r2, .L24
 162              	.LVL5:
 163              		.loc 2 27 9 is_stmt 0 view .LVU45
 164 0016 1368     		ldr	r3, [r2]
 165              		.loc 2 27 14 view .LVU46
 166 0018 43F02003 		orr	r3, r3, #32
 167 001c 1360     		str	r3, [r2]
 168              	.LVL6:
 169              		.loc 2 27 14 view .LVU47
 170              	.LBE25:
 171              	.LBE24:
  56:controller/engine_cycle/trigger.c ****     log_error("Trigger initialization failed. Wheel type not recognized.");
 172              		.loc 1 56 5 is_stmt 1 view .LVU48
 173 001e 2148     		ldr	r0, .L24+4
 174              	.LVL7:
 175              		.loc 1 56 5 is_stmt 0 view .LVU49
 176 0020 FFF7FEFF 		bl	log_error
 177              	.LVL8:
  57:controller/engine_cycle/trigger.c ****     break;
 178              		.loc 1 57 5 is_stmt 1 view .LVU50
 179 0024 0EE0     		b	.L15
 180              	.LVL9:
 181              	.L23:
  34:controller/engine_cycle/trigger.c ****     log_error("Trigger initialization failed. Trigger is NULL.");
 182              		.loc 1 34 5 view .LVU51
 183              	.LBB26:
 184              	.LBI26:
  19:controller/utils/utils.h **** {
 185              		.loc 2 19 20 view .LVU52
 186              	.LBB27:
  21:controller/utils/utils.h ****     {
 187              		.loc 2 21 5 view .LVU53
  25:controller/utils/utils.h ****     {
ARM GAS  C:\Users\alireza\AppData\Local\Temp\cckpdMeE.s 			page 6


 188              		.loc 2 25 5 view .LVU54
 189              		.loc 2 27 9 view .LVU55
 190 0026 1E4A     		ldr	r2, .L24
 191              	.LVL10:
 192              		.loc 2 27 9 is_stmt 0 view .LVU56
 193 0028 1368     		ldr	r3, [r2]
 194              	.LVL11:
 195              		.loc 2 27 14 view .LVU57
 196 002a 43F02003 		orr	r3, r3, #32
 197 002e 1360     		str	r3, [r2]
 198              	.LVL12:
 199              		.loc 2 27 14 view .LVU58
 200              	.LBE27:
 201              	.LBE26:
  35:controller/engine_cycle/trigger.c ****     return;
 202              		.loc 1 35 5 is_stmt 1 view .LVU59
 203 0030 1D48     		ldr	r0, .L24+8
 204              	.LVL13:
  35:controller/engine_cycle/trigger.c ****     return;
 205              		.loc 1 35 5 is_stmt 0 view .LVU60
 206 0032 FFF7FEFF 		bl	log_error
 207              	.LVL14:
  36:controller/engine_cycle/trigger.c ****   }
 208              		.loc 1 36 5 is_stmt 1 view .LVU61
 209 0036 2CE0     		b	.L9
 210              	.LVL15:
 211              	.L12:
  44:controller/engine_cycle/trigger.c ****     trigger->_full_teeth = 60;
 212              		.loc 1 44 5 view .LVU62
  44:controller/engine_cycle/trigger.c ****     trigger->_full_teeth = 60;
 213              		.loc 1 44 29 is_stmt 0 view .LVU63
 214 0038 0223     		movs	r3, #2
 215              	.LVL16:
  44:controller/engine_cycle/trigger.c ****     trigger->_full_teeth = 60;
 216              		.loc 1 44 29 view .LVU64
 217 003a 80F82830 		strb	r3, [r0, #40]
  45:controller/engine_cycle/trigger.c ****     break;
 218              		.loc 1 45 5 is_stmt 1 view .LVU65
  45:controller/engine_cycle/trigger.c ****     break;
 219              		.loc 1 45 26 is_stmt 0 view .LVU66
 220 003e 3C23     		movs	r3, #60
 221 0040 80F82730 		strb	r3, [r0, #39]
  46:controller/engine_cycle/trigger.c **** 
 222              		.loc 1 46 5 is_stmt 1 view .LVU67
 223              	.LVL17:
 224              	.L15:
  58:controller/engine_cycle/trigger.c ****   }
  59:controller/engine_cycle/trigger.c **** 
  60:controller/engine_cycle/trigger.c ****   switch (trigger->trigger_number)
 225              		.loc 1 60 3 view .LVU68
 226              		.loc 1 60 18 is_stmt 0 view .LVU69
 227 0044 2378     		ldrb	r3, [r4]	@ zero_extendqisi2
 228              		.loc 1 60 3 view .LVU70
 229 0046 9BB1     		cbz	r3, .L16
 230 0048 012B     		cmp	r3, #1
 231 004a 23D0     		beq	.L17
  61:controller/engine_cycle/trigger.c ****   {
ARM GAS  C:\Users\alireza\AppData\Local\Temp\cckpdMeE.s 			page 7


  62:controller/engine_cycle/trigger.c ****   case TRIGGER_NUMBER_1:
  63:controller/engine_cycle/trigger.c ****     change_bit(&runtime.status, STATUS_TRIGGER1_SYNCED, true);
  64:controller/engine_cycle/trigger.c ****     break;
  65:controller/engine_cycle/trigger.c ****   case TRIGGER_NUMBER_2:
  66:controller/engine_cycle/trigger.c ****     change_bit(&runtime.status, STATUS_TRIGGER2_SYNCED, true);
  67:controller/engine_cycle/trigger.c ****     break;
  68:controller/engine_cycle/trigger.c ****   default:
  69:controller/engine_cycle/trigger.c ****     log_error("Trigger initialization failed. unknown trigger number.");
 232              		.loc 1 69 5 is_stmt 1 view .LVU71
 233 004c 1748     		ldr	r0, .L24+12
 234 004e FFF7FEFF 		bl	log_error
 235              	.LVL18:
  70:controller/engine_cycle/trigger.c ****     change_bit(&runtime.status, STATUS_TRIGGER_ERROR, true);
 236              		.loc 1 70 5 view .LVU72
 237              	.LBB28:
 238              	.LBI28:
  19:controller/utils/utils.h **** {
 239              		.loc 2 19 20 view .LVU73
 240              	.LBB29:
  21:controller/utils/utils.h ****     {
 241              		.loc 2 21 5 view .LVU74
  25:controller/utils/utils.h ****     {
 242              		.loc 2 25 5 view .LVU75
 243              		.loc 2 27 9 view .LVU76
 244 0052 134A     		ldr	r2, .L24
 245 0054 1368     		ldr	r3, [r2]
 246              		.loc 2 27 14 is_stmt 0 view .LVU77
 247 0056 43F02003 		orr	r3, r3, #32
 248 005a 1360     		str	r3, [r2]
 249              	.LVL19:
 250              		.loc 2 27 14 view .LVU78
 251              	.LBE29:
 252              	.LBE28:
  71:controller/engine_cycle/trigger.c ****     trigger->initialized = false;
 253              		.loc 1 71 5 is_stmt 1 view .LVU79
 254              		.loc 1 71 26 is_stmt 0 view .LVU80
 255 005c 0023     		movs	r3, #0
 256 005e 6370     		strb	r3, [r4, #1]
  72:controller/engine_cycle/trigger.c ****     return;
 257              		.loc 1 72 5 is_stmt 1 view .LVU81
 258 0060 17E0     		b	.L9
 259              	.LVL20:
 260              	.L13:
  49:controller/engine_cycle/trigger.c ****     trigger->_full_teeth = 29;
 261              		.loc 1 49 5 view .LVU82
  49:controller/engine_cycle/trigger.c ****     trigger->_full_teeth = 29;
 262              		.loc 1 49 29 is_stmt 0 view .LVU83
 263 0062 0123     		movs	r3, #1
 264              	.LVL21:
  49:controller/engine_cycle/trigger.c ****     trigger->_full_teeth = 29;
 265              		.loc 1 49 29 view .LVU84
 266 0064 80F82830 		strb	r3, [r0, #40]
  50:controller/engine_cycle/trigger.c ****     break;
 267              		.loc 1 50 5 is_stmt 1 view .LVU85
  50:controller/engine_cycle/trigger.c ****     break;
 268              		.loc 1 50 26 is_stmt 0 view .LVU86
 269 0068 1D23     		movs	r3, #29
ARM GAS  C:\Users\alireza\AppData\Local\Temp\cckpdMeE.s 			page 8


 270 006a 80F82730 		strb	r3, [r0, #39]
  51:controller/engine_cycle/trigger.c **** 
 271              		.loc 1 51 5 is_stmt 1 view .LVU87
 272 006e E9E7     		b	.L15
 273              	.LVL22:
 274              	.L16:
  63:controller/engine_cycle/trigger.c ****     break;
 275              		.loc 1 63 5 view .LVU88
 276              	.LBB30:
 277              	.LBI30:
  19:controller/utils/utils.h **** {
 278              		.loc 2 19 20 view .LVU89
 279              	.LBB31:
  21:controller/utils/utils.h ****     {
 280              		.loc 2 21 5 view .LVU90
  25:controller/utils/utils.h ****     {
 281              		.loc 2 25 5 view .LVU91
 282              		.loc 2 27 9 view .LVU92
 283 0070 0B4A     		ldr	r2, .L24
 284 0072 1368     		ldr	r3, [r2]
 285              		.loc 2 27 14 is_stmt 0 view .LVU93
 286 0074 43F00803 		orr	r3, r3, #8
 287 0078 1360     		str	r3, [r2]
 288              	.LVL23:
 289              		.loc 2 27 14 view .LVU94
 290              	.LBE31:
 291              	.LBE30:
  64:controller/engine_cycle/trigger.c ****   case TRIGGER_NUMBER_2:
 292              		.loc 1 64 5 is_stmt 1 view .LVU95
 293              	.L19:
  73:controller/engine_cycle/trigger.c ****   }
  74:controller/engine_cycle/trigger.c **** 
  75:controller/engine_cycle/trigger.c ****   set_filtering(trigger);
 294              		.loc 1 75 3 view .LVU96
 295 007a 2046     		mov	r0, r4
 296 007c FFF7FEFF 		bl	set_filtering
 297              	.LVL24:
  76:controller/engine_cycle/trigger.c ****   trigger->_trigger_actual_teeth = trigger->_full_teeth - trigger->_missing_teeth;
 298              		.loc 1 76 3 view .LVU97
 299              		.loc 1 76 43 is_stmt 0 view .LVU98
 300 0080 94F82730 		ldrb	r3, [r4, #39]	@ zero_extendqisi2
 301              		.loc 1 76 66 view .LVU99
 302 0084 94F82820 		ldrb	r2, [r4, #40]	@ zero_extendqisi2
 303              		.loc 1 76 57 view .LVU100
 304 0088 9B1A     		subs	r3, r3, r2
 305              		.loc 1 76 34 view .LVU101
 306 008a 84F82630 		strb	r3, [r4, #38]
  77:controller/engine_cycle/trigger.c ****   trigger->initialized = true;
 307              		.loc 1 77 3 is_stmt 1 view .LVU102
 308              		.loc 1 77 24 is_stmt 0 view .LVU103
 309 008e 0123     		movs	r3, #1
 310 0090 6370     		strb	r3, [r4, #1]
 311              	.LVL25:
 312              	.L9:
  78:controller/engine_cycle/trigger.c **** }
 313              		.loc 1 78 1 view .LVU104
 314 0092 10BD     		pop	{r4, pc}
ARM GAS  C:\Users\alireza\AppData\Local\Temp\cckpdMeE.s 			page 9


 315              	.LVL26:
 316              	.L17:
  66:controller/engine_cycle/trigger.c ****     break;
 317              		.loc 1 66 5 is_stmt 1 view .LVU105
 318              	.LBB32:
 319              	.LBI32:
  19:controller/utils/utils.h **** {
 320              		.loc 2 19 20 view .LVU106
 321              	.LBB33:
  21:controller/utils/utils.h ****     {
 322              		.loc 2 21 5 view .LVU107
  25:controller/utils/utils.h ****     {
 323              		.loc 2 25 5 view .LVU108
 324              		.loc 2 27 9 view .LVU109
 325 0094 024A     		ldr	r2, .L24
 326 0096 1368     		ldr	r3, [r2]
 327              		.loc 2 27 14 is_stmt 0 view .LVU110
 328 0098 43F01003 		orr	r3, r3, #16
 329 009c 1360     		str	r3, [r2]
 330              	.LVL27:
 331              		.loc 2 27 14 view .LVU111
 332              	.LBE33:
 333              	.LBE32:
  67:controller/engine_cycle/trigger.c ****   default:
 334              		.loc 1 67 5 is_stmt 1 view .LVU112
 335 009e ECE7     		b	.L19
 336              	.L25:
 337              		.align	2
 338              	.L24:
 339 00a0 00000000 		.word	runtime
 340 00a4 30000000 		.word	.LC1
 341 00a8 00000000 		.word	.LC0
 342 00ac 6C000000 		.word	.LC2
 343              		.cfi_endproc
 344              	.LFE233:
 346              		.section	.text.crankshaft_get_rpm,"ax",%progbits
 347              		.align	1
 348              		.global	crankshaft_get_rpm
 349              		.syntax unified
 350              		.thumb
 351              		.thumb_func
 353              	crankshaft_get_rpm:
 354              	.LFB235:
  79:controller/engine_cycle/trigger.c **** 
  80:controller/engine_cycle/trigger.c **** void trigger_tooth_handle(trigger_t *trigger)
  81:controller/engine_cycle/trigger.c **** {
  82:controller/engine_cycle/trigger.c **** 
  83:controller/engine_cycle/trigger.c ****   if (!trigger->initialized)
  84:controller/engine_cycle/trigger.c ****   {
  85:controller/engine_cycle/trigger.c ****     change_bit(&runtime.status, STATUS_TRIGGER_ERROR, true);
  86:controller/engine_cycle/trigger.c ****     log_error("Trigger is not initialized.");
  87:controller/engine_cycle/trigger.c ****     return;
  88:controller/engine_cycle/trigger.c ****   }
  89:controller/engine_cycle/trigger.c **** 
  90:controller/engine_cycle/trigger.c ****   trigger->_tooth_time_us[0] = get_time_us();
  91:controller/engine_cycle/trigger.c ****   trigger->_current_tooth_gap_us = trigger->_tooth_time_us[0] - trigger->_tooth_time_us[1];
  92:controller/engine_cycle/trigger.c **** 
ARM GAS  C:\Users\alireza\AppData\Local\Temp\cckpdMeE.s 			page 10


  93:controller/engine_cycle/trigger.c ****   if (trigger->_current_tooth_gap_us < trigger->_trigger_filter_time_us) // Pulses should never be 
  94:controller/engine_cycle/trigger.c ****   {
  95:controller/engine_cycle/trigger.c ****     // Reset the filter to avoid getting stuck
  96:controller/engine_cycle/trigger.c ****     // trigger->_trigger_filter_time_us = trigger->_current_tooth_gap_us / 2U;
  97:controller/engine_cycle/trigger.c ****     return;
  98:controller/engine_cycle/trigger.c ****   }
  99:controller/engine_cycle/trigger.c **** 
 100:controller/engine_cycle/trigger.c ****   trigger->_counted_tooth++; // Increment the tooth counter
 101:controller/engine_cycle/trigger.c **** 
 102:controller/engine_cycle/trigger.c ****   bool is_missing_teeth = false;
 103:controller/engine_cycle/trigger.c **** 
 104:controller/engine_cycle/trigger.c ****   // if we had previous data calculate the tooth gap
 105:controller/engine_cycle/trigger.c ****   if (trigger->_tooth_time_us[1] == 0 || trigger->_tooth_time_us[2] == 0)
 106:controller/engine_cycle/trigger.c ****   {
 107:controller/engine_cycle/trigger.c ****     // return;
 108:controller/engine_cycle/trigger.c ****   }
 109:controller/engine_cycle/trigger.c **** 
 110:controller/engine_cycle/trigger.c ****   time_us_t previous_tooth_gap = 0;
 111:controller/engine_cycle/trigger.c **** 
 112:controller/engine_cycle/trigger.c ****   previous_tooth_gap = trigger->_tooth_time_us[1] - trigger->_tooth_time_us[2];
 113:controller/engine_cycle/trigger.c **** 
 114:controller/engine_cycle/trigger.c ****   // this selects the shorter tooth gap since that is more appropriate
 115:controller/engine_cycle/trigger.c ****   if (previous_tooth_gap < trigger->_current_tooth_gap_us)
 116:controller/engine_cycle/trigger.c ****   {
 117:controller/engine_cycle/trigger.c ****     /**
 118:controller/engine_cycle/trigger.c ****      * We use the previous tooth gap since the current tooth gap might be long and indicate missing
 119:controller/engine_cycle/trigger.c ****      */
 120:controller/engine_cycle/trigger.c ****     trigger->_shorter_tooth_gap = previous_tooth_gap;
 121:controller/engine_cycle/trigger.c ****   }
 122:controller/engine_cycle/trigger.c ****   else
 123:controller/engine_cycle/trigger.c ****   {
 124:controller/engine_cycle/trigger.c ****     trigger->_shorter_tooth_gap = trigger->_current_tooth_gap_us;
 125:controller/engine_cycle/trigger.c ****   }
 126:controller/engine_cycle/trigger.c **** 
 127:controller/engine_cycle/trigger.c ****   // If the time between the current tooth and the last is greater than 1.5x the time between the l
 128:controller/engine_cycle/trigger.c ****   if (trigger->_missing_teeth == 1)
 129:controller/engine_cycle/trigger.c ****   {
 130:controller/engine_cycle/trigger.c ****     trigger->_target_tooth_gap_us = (3 * trigger->_shorter_tooth_gap) >> 1;
 131:controller/engine_cycle/trigger.c ****   } // Multiply by 1.5 (Checks for a gap 1.5x greater than the last one) (Uses bitshift to multiply
 132:controller/engine_cycle/trigger.c ****   else
 133:controller/engine_cycle/trigger.c ****   {
 134:controller/engine_cycle/trigger.c ****     trigger->_target_tooth_gap_us = trigger->_shorter_tooth_gap * trigger->_missing_teeth;
 135:controller/engine_cycle/trigger.c ****   } // Multiply by 2 (Checks for a gap 2x greater than the last one
 136:controller/engine_cycle/trigger.c **** 
 137:controller/engine_cycle/trigger.c ****   // if( (_tooth_time_us[1] == 0) || (_tooth_time_us[2] == 0) ) { _current_tooth_gap_us = 0; }
 138:controller/engine_cycle/trigger.c **** 
 139:controller/engine_cycle/trigger.c ****   if ((trigger->_current_tooth_gap_us > trigger->_target_tooth_gap_us) || (trigger->_counted_tooth 
 140:controller/engine_cycle/trigger.c ****   {
 141:controller/engine_cycle/trigger.c ****     // Missing tooth detected
 142:controller/engine_cycle/trigger.c ****     is_missing_teeth = true;
 143:controller/engine_cycle/trigger.c ****     /**
 144:controller/engine_cycle/trigger.c ****      * this means that we  have missed a few teeth for some reason
 145:controller/engine_cycle/trigger.c ****      */
 146:controller/engine_cycle/trigger.c ****     if (trigger->_counted_tooth < trigger->_trigger_actual_teeth)
 147:controller/engine_cycle/trigger.c ****     {
 148:controller/engine_cycle/trigger.c ****       change_bit(&runtime.status, trigger->status_synced_index, TS_NOT_SYNCED);
 149:controller/engine_cycle/trigger.c ****       runtime.sync_loss_counter++;
ARM GAS  C:\Users\alireza\AppData\Local\Temp\cckpdMeE.s 			page 11


 150:controller/engine_cycle/trigger.c ****       if (trigger->status_synced_index == STATUS_TRIGGER1_SYNCED)
 151:controller/engine_cycle/trigger.c ****       {
 152:controller/engine_cycle/trigger.c ****         runtime.total_revolutions = 0;
 153:controller/engine_cycle/trigger.c ****         runtime.rpm = 0;
 154:controller/engine_cycle/trigger.c ****       }
 155:controller/engine_cycle/trigger.c ****       trigger->_counted_tooth = 0;
 156:controller/engine_cycle/trigger.c ****     }
 157:controller/engine_cycle/trigger.c ****     else
 158:controller/engine_cycle/trigger.c ****     {
 159:controller/engine_cycle/trigger.c ****       change_bit(&runtime.status, trigger->status_synced_index, TS_FULLY_SYNCED);
 160:controller/engine_cycle/trigger.c ****       if (trigger->status_synced_index == STATUS_TRIGGER1_SYNCED)
 161:controller/engine_cycle/trigger.c ****       {
 162:controller/engine_cycle/trigger.c ****         runtime.total_revolutions++;
 163:controller/engine_cycle/trigger.c ****       }
 164:controller/engine_cycle/trigger.c ****       trigger->_counted_tooth = 0;
 165:controller/engine_cycle/trigger.c ****       // here we can say we are at TDC!
 166:controller/engine_cycle/trigger.c ****       // osEventFlagsSet(engine.flags, ENGINE_FLAG_ROTATION_EVENT);
 167:controller/engine_cycle/trigger.c ****     }
 168:controller/engine_cycle/trigger.c ****   }
 169:controller/engine_cycle/trigger.c **** 
 170:controller/engine_cycle/trigger.c ****   runtime.crankshaft_angle = 360.0f / (angle_t)trigger->_full_teeth * (angle_t)trigger->_counted_to
 171:controller/engine_cycle/trigger.c ****   runtime.rpm = (rpm_t)(CONVERSION_FACTOR_SECONDS_TO_MICROSECONDS * CONVERSION_FACTOR_MINUTES_TO_SE
 172:controller/engine_cycle/trigger.c ****   if (trigger->trigger_number == TRIGGER_NUMBER_1)
 173:controller/engine_cycle/trigger.c ****   {
 174:controller/engine_cycle/trigger.c ****       if (get_bit(runtime.status, STATUS_TRIGGER1_SYNCED) == TS_FULLY_SYNCED && runtime.rpm >= conf
 175:controller/engine_cycle/trigger.c ****   {
 176:controller/engine_cycle/trigger.c ****     runtime.spinning_state = SS_RUNNING;
 177:controller/engine_cycle/trigger.c ****   }
 178:controller/engine_cycle/trigger.c ****   else if (get_bit(runtime.status, STATUS_TRIGGER1_SYNCED) == TS_FULLY_SYNCED && runtime.rpm < conf
 179:controller/engine_cycle/trigger.c ****   {
 180:controller/engine_cycle/trigger.c ****     runtime.spinning_state = SS_CRANKING;
 181:controller/engine_cycle/trigger.c ****   }
 182:controller/engine_cycle/trigger.c ****   else if (get_bit(runtime.status, STATUS_TRIGGER1_SYNCED) == TS_NOT_SYNCED)
 183:controller/engine_cycle/trigger.c ****   {
 184:controller/engine_cycle/trigger.c ****     runtime.spinning_state = SS_SPINNING_UP;
 185:controller/engine_cycle/trigger.c ****   }
 186:controller/engine_cycle/trigger.c ****   else
 187:controller/engine_cycle/trigger.c ****   {
 188:controller/engine_cycle/trigger.c ****     runtime.spinning_state = SS_STOPPED;
 189:controller/engine_cycle/trigger.c ****   }
 190:controller/engine_cycle/trigger.c ****   }
 191:controller/engine_cycle/trigger.c ****   
 192:controller/engine_cycle/trigger.c **** 
 193:controller/engine_cycle/trigger.c **** 
 194:controller/engine_cycle/trigger.c ****   /**
 195:controller/engine_cycle/trigger.c ****    * @todo make sure the filter cannot get stuck in any condition
 196:controller/engine_cycle/trigger.c ****    */
 197:controller/engine_cycle/trigger.c ****   if (is_missing_teeth == false)
 198:controller/engine_cycle/trigger.c ****   {
 199:controller/engine_cycle/trigger.c ****     // Regular (non-missing) tooth
 200:controller/engine_cycle/trigger.c ****     set_filtering(trigger);
 201:controller/engine_cycle/trigger.c ****   }
 202:controller/engine_cycle/trigger.c **** 
 203:controller/engine_cycle/trigger.c ****   trigger->_tooth_time_us[2] = trigger->_tooth_time_us[1];
 204:controller/engine_cycle/trigger.c ****   trigger->_tooth_time_us[1] = trigger->_tooth_time_us[0];
 205:controller/engine_cycle/trigger.c **** 
 206:controller/engine_cycle/trigger.c ****   /* call trigger driven events such as ignition etc... */
ARM GAS  C:\Users\alireza\AppData\Local\Temp\cckpdMeE.s 			page 12


 207:controller/engine_cycle/trigger.c ****   ignition_trigger_event_handle(crankshaft_get_angle(), crankshaft_get_rpm(), get_time_us());
 208:controller/engine_cycle/trigger.c ****   /* set the os flags for the engine */
 209:controller/engine_cycle/trigger.c ****   //osEventFlagsSet(engine.flags, ENGINE_FLAG_TRIGGER_EVENT);
 210:controller/engine_cycle/trigger.c **** }
 211:controller/engine_cycle/trigger.c **** 
 212:controller/engine_cycle/trigger.c **** rpm_t crankshaft_get_rpm()
 213:controller/engine_cycle/trigger.c **** {
 355              		.loc 1 213 1 view -0
 356              		.cfi_startproc
 357              		@ args = 0, pretend = 0, frame = 0
 358              		@ frame_needed = 0, uses_anonymous_args = 0
 359              		@ link register save eliminated.
 214:controller/engine_cycle/trigger.c ****   return runtime.rpm;
 360              		.loc 1 214 3 view .LVU114
 215:controller/engine_cycle/trigger.c **** }
 361              		.loc 1 215 1 is_stmt 0 view .LVU115
 362 0000 014B     		ldr	r3, .L27
 363 0002 93ED060A 		vldr.32	s0, [r3, #24]
 364 0006 7047     		bx	lr
 365              	.L28:
 366              		.align	2
 367              	.L27:
 368 0008 00000000 		.word	runtime
 369              		.cfi_endproc
 370              	.LFE235:
 372              		.section	.text.crankshaft_get_angle,"ax",%progbits
 373              		.align	1
 374              		.global	crankshaft_get_angle
 375              		.syntax unified
 376              		.thumb
 377              		.thumb_func
 379              	crankshaft_get_angle:
 380              	.LFB236:
 216:controller/engine_cycle/trigger.c **** 
 217:controller/engine_cycle/trigger.c **** /**
 218:controller/engine_cycle/trigger.c ****  * @brief returns the instant angle of the crankshaft
 219:controller/engine_cycle/trigger.c ****  * @note angle is updated on every trigger event!
 220:controller/engine_cycle/trigger.c ****  */
 221:controller/engine_cycle/trigger.c **** angle_t crankshaft_get_angle()
 222:controller/engine_cycle/trigger.c **** {
 381              		.loc 1 222 1 is_stmt 1 view -0
 382              		.cfi_startproc
 383              		@ args = 0, pretend = 0, frame = 0
 384              		@ frame_needed = 0, uses_anonymous_args = 0
 385              		@ link register save eliminated.
 223:controller/engine_cycle/trigger.c ****   return runtime.crankshaft_angle;
 386              		.loc 1 223 3 view .LVU117
 224:controller/engine_cycle/trigger.c **** }
 387              		.loc 1 224 1 is_stmt 0 view .LVU118
 388 0000 014B     		ldr	r3, .L30
 389 0002 93ED040A 		vldr.32	s0, [r3, #16]
 390 0006 7047     		bx	lr
 391              	.L31:
 392              		.align	2
 393              	.L30:
 394 0008 00000000 		.word	runtime
 395              		.cfi_endproc
ARM GAS  C:\Users\alireza\AppData\Local\Temp\cckpdMeE.s 			page 13


 396              	.LFE236:
 398              		.section	.rodata.trigger_tooth_handle.str1.4,"aMS",%progbits,1
 399              		.align	2
 400              	.LC3:
 401 0000 54726967 		.ascii	"Trigger is not initialized.\000"
 401      67657220 
 401      6973206E 
 401      6F742069 
 401      6E697469 
 402              		.section	.text.trigger_tooth_handle,"ax",%progbits
 403              		.align	1
 404              		.global	trigger_tooth_handle
 405              		.syntax unified
 406              		.thumb
 407              		.thumb_func
 409              	trigger_tooth_handle:
 410              	.LVL28:
 411              	.LFB234:
  81:controller/engine_cycle/trigger.c **** 
 412              		.loc 1 81 1 is_stmt 1 view -0
 413              		.cfi_startproc
 414              		@ args = 0, pretend = 0, frame = 0
 415              		@ frame_needed = 0, uses_anonymous_args = 0
  81:controller/engine_cycle/trigger.c **** 
 416              		.loc 1 81 1 is_stmt 0 view .LVU120
 417 0000 38B5     		push	{r3, r4, r5, lr}
 418              		.cfi_def_cfa_offset 16
 419              		.cfi_offset 3, -16
 420              		.cfi_offset 4, -12
 421              		.cfi_offset 5, -8
 422              		.cfi_offset 14, -4
 423 0002 2DED028B 		vpush.64	{d8}
 424              		.cfi_def_cfa_offset 24
 425              		.cfi_offset 80, -24
 426              		.cfi_offset 81, -20
  83:controller/engine_cycle/trigger.c ****   {
 427              		.loc 1 83 3 is_stmt 1 view .LVU121
  83:controller/engine_cycle/trigger.c ****   {
 428              		.loc 1 83 15 is_stmt 0 view .LVU122
 429 0006 4578     		ldrb	r5, [r0, #1]	@ zero_extendqisi2
  83:controller/engine_cycle/trigger.c ****   {
 430              		.loc 1 83 6 view .LVU123
 431 0008 002D     		cmp	r5, #0
 432 000a 70D0     		beq	.L57
 433 000c 0446     		mov	r4, r0
  90:controller/engine_cycle/trigger.c ****   trigger->_current_tooth_gap_us = trigger->_tooth_time_us[0] - trigger->_tooth_time_us[1];
 434              		.loc 1 90 3 is_stmt 1 view .LVU124
  90:controller/engine_cycle/trigger.c ****   trigger->_current_tooth_gap_us = trigger->_tooth_time_us[0] - trigger->_tooth_time_us[1];
 435              		.loc 1 90 32 is_stmt 0 view .LVU125
 436 000e FFF7FEFF 		bl	get_time_us
 437              	.LVL29:
  90:controller/engine_cycle/trigger.c ****   trigger->_current_tooth_gap_us = trigger->_tooth_time_us[0] - trigger->_tooth_time_us[1];
 438              		.loc 1 90 30 discriminator 1 view .LVU126
 439 0012 E060     		str	r0, [r4, #12]
  91:controller/engine_cycle/trigger.c **** 
 440              		.loc 1 91 3 is_stmt 1 view .LVU127
  91:controller/engine_cycle/trigger.c **** 
ARM GAS  C:\Users\alireza\AppData\Local\Temp\cckpdMeE.s 			page 14


 441              		.loc 1 91 88 is_stmt 0 view .LVU128
 442 0014 2269     		ldr	r2, [r4, #16]
  91:controller/engine_cycle/trigger.c **** 
 443              		.loc 1 91 63 view .LVU129
 444 0016 801A     		subs	r0, r0, r2
  91:controller/engine_cycle/trigger.c **** 
 445              		.loc 1 91 34 view .LVU130
 446 0018 A061     		str	r0, [r4, #24]
  93:controller/engine_cycle/trigger.c ****   {
 447              		.loc 1 93 3 is_stmt 1 view .LVU131
  93:controller/engine_cycle/trigger.c ****   {
 448              		.loc 1 93 47 is_stmt 0 view .LVU132
 449 001a A368     		ldr	r3, [r4, #8]
  93:controller/engine_cycle/trigger.c ****   {
 450              		.loc 1 93 6 view .LVU133
 451 001c 9842     		cmp	r0, r3
 452 001e C0F0BC80 		bcc	.L32
 100:controller/engine_cycle/trigger.c **** 
 453              		.loc 1 100 3 is_stmt 1 view .LVU134
 100:controller/engine_cycle/trigger.c **** 
 454              		.loc 1 100 10 is_stmt 0 view .LVU135
 455 0022 A38C     		ldrh	r3, [r4, #36]
 100:controller/engine_cycle/trigger.c **** 
 456              		.loc 1 100 26 view .LVU136
 457 0024 0133     		adds	r3, r3, #1
 458 0026 9BB2     		uxth	r3, r3
 459 0028 A384     		strh	r3, [r4, #36]	@ movhi
 102:controller/engine_cycle/trigger.c **** 
 460              		.loc 1 102 3 is_stmt 1 view .LVU137
 461              	.LVL30:
 105:controller/engine_cycle/trigger.c ****   {
 462              		.loc 1 105 3 view .LVU138
 108:controller/engine_cycle/trigger.c **** 
 463              		.loc 1 108 3 view .LVU139
 110:controller/engine_cycle/trigger.c **** 
 464              		.loc 1 110 3 view .LVU140
 112:controller/engine_cycle/trigger.c **** 
 465              		.loc 1 112 3 view .LVU141
 112:controller/engine_cycle/trigger.c **** 
 466              		.loc 1 112 76 is_stmt 0 view .LVU142
 467 002a 6169     		ldr	r1, [r4, #20]
 112:controller/engine_cycle/trigger.c **** 
 468              		.loc 1 112 22 view .LVU143
 469 002c 521A     		subs	r2, r2, r1
 470              	.LVL31:
 115:controller/engine_cycle/trigger.c ****   {
 471              		.loc 1 115 3 is_stmt 1 view .LVU144
 115:controller/engine_cycle/trigger.c ****   {
 472              		.loc 1 115 6 is_stmt 0 view .LVU145
 473 002e 9042     		cmp	r0, r2
 474 0030 66D9     		bls	.L35
 120:controller/engine_cycle/trigger.c ****   }
 475              		.loc 1 120 5 is_stmt 1 view .LVU146
 120:controller/engine_cycle/trigger.c ****   }
 476              		.loc 1 120 33 is_stmt 0 view .LVU147
 477 0032 E261     		str	r2, [r4, #28]
 478              	.L36:
ARM GAS  C:\Users\alireza\AppData\Local\Temp\cckpdMeE.s 			page 15


 128:controller/engine_cycle/trigger.c ****   {
 479              		.loc 1 128 3 is_stmt 1 view .LVU148
 128:controller/engine_cycle/trigger.c ****   {
 480              		.loc 1 128 14 is_stmt 0 view .LVU149
 481 0034 94F82820 		ldrb	r2, [r4, #40]	@ zero_extendqisi2
 482              	.LVL32:
 128:controller/engine_cycle/trigger.c ****   {
 483              		.loc 1 128 6 view .LVU150
 484 0038 012A     		cmp	r2, #1
 485 003a 63D0     		beq	.L58
 134:controller/engine_cycle/trigger.c ****   } // Multiply by 2 (Checks for a gap 2x greater than the last one
 486              		.loc 1 134 5 is_stmt 1 view .LVU151
 134:controller/engine_cycle/trigger.c ****   } // Multiply by 2 (Checks for a gap 2x greater than the last one
 487              		.loc 1 134 44 is_stmt 0 view .LVU152
 488 003c E169     		ldr	r1, [r4, #28]
 489              	.LVL33:
 134:controller/engine_cycle/trigger.c ****   } // Multiply by 2 (Checks for a gap 2x greater than the last one
 490              		.loc 1 134 65 view .LVU153
 491 003e 02FB01F1 		mul	r1, r2, r1
 134:controller/engine_cycle/trigger.c ****   } // Multiply by 2 (Checks for a gap 2x greater than the last one
 492              		.loc 1 134 35 view .LVU154
 493 0042 2162     		str	r1, [r4, #32]
 494              	.L38:
 139:controller/engine_cycle/trigger.c ****   {
 495              		.loc 1 139 3 is_stmt 1 view .LVU155
 139:controller/engine_cycle/trigger.c ****   {
 496              		.loc 1 139 48 is_stmt 0 view .LVU156
 497 0044 226A     		ldr	r2, [r4, #32]
 139:controller/engine_cycle/trigger.c ****   {
 498              		.loc 1 139 6 view .LVU157
 499 0046 9042     		cmp	r0, r2
 500 0048 03D8     		bhi	.L39
 139:controller/engine_cycle/trigger.c ****   {
 501              		.loc 1 139 109 discriminator 1 view .LVU158
 502 004a 94F82620 		ldrb	r2, [r4, #38]	@ zero_extendqisi2
 139:controller/engine_cycle/trigger.c ****   {
 503              		.loc 1 139 72 discriminator 1 view .LVU159
 504 004e 9342     		cmp	r3, r2
 505 0050 79D9     		bls	.L53
 506              	.L39:
 142:controller/engine_cycle/trigger.c ****     /**
 507              		.loc 1 142 5 is_stmt 1 view .LVU160
 508              	.LVL34:
 146:controller/engine_cycle/trigger.c ****     {
 509              		.loc 1 146 5 view .LVU161
 146:controller/engine_cycle/trigger.c ****     {
 510              		.loc 1 146 42 is_stmt 0 view .LVU162
 511 0052 94F82620 		ldrb	r2, [r4, #38]	@ zero_extendqisi2
 146:controller/engine_cycle/trigger.c ****     {
 512              		.loc 1 146 8 view .LVU163
 513 0056 9342     		cmp	r3, r2
 514 0058 60D2     		bcs	.L41
 148:controller/engine_cycle/trigger.c ****       runtime.sync_loss_counter++;
 515              		.loc 1 148 7 is_stmt 1 view .LVU164
 516 005a A378     		ldrb	r3, [r4, #2]	@ zero_extendqisi2
 517              	.LVL35:
 518              	.LBB34:
ARM GAS  C:\Users\alireza\AppData\Local\Temp\cckpdMeE.s 			page 16


 519              	.LBI34:
  19:controller/utils/utils.h **** {
 520              		.loc 2 19 20 view .LVU165
 521              	.LBB35:
  21:controller/utils/utils.h ****     {
 522              		.loc 2 21 5 view .LVU166
  21:controller/utils/utils.h ****     {
 523              		.loc 2 21 8 is_stmt 0 view .LVU167
 524 005c 1F2B     		cmp	r3, #31
 525 005e 07D8     		bhi	.L42
  25:controller/utils/utils.h ****     {
 526              		.loc 2 25 5 is_stmt 1 view .LVU168
  28:controller/utils/utils.h ****     }
  29:controller/utils/utils.h ****     else
  30:controller/utils/utils.h ****     {
  31:controller/utils/utils.h ****         *var &= ~(1u << bit);
 527              		.loc 2 31 9 view .LVU169
 528 0060 5448     		ldr	r0, .L62
 529 0062 0268     		ldr	r2, [r0]
 530              		.loc 2 31 22 is_stmt 0 view .LVU170
 531 0064 0121     		movs	r1, #1
 532 0066 01FA03F3 		lsl	r3, r1, r3
 533              	.LVL36:
 534              		.loc 2 31 14 view .LVU171
 535 006a 22EA0302 		bic	r2, r2, r3
 536 006e 0260     		str	r2, [r0]
 537              	.LVL37:
 538              	.L42:
 539              		.loc 2 31 14 view .LVU172
 540              	.LBE35:
 541              	.LBE34:
 149:controller/engine_cycle/trigger.c ****       if (trigger->status_synced_index == STATUS_TRIGGER1_SYNCED)
 542              		.loc 1 149 7 is_stmt 1 view .LVU173
 149:controller/engine_cycle/trigger.c ****       if (trigger->status_synced_index == STATUS_TRIGGER1_SYNCED)
 543              		.loc 1 149 14 is_stmt 0 view .LVU174
 544 0070 504A     		ldr	r2, .L62
 545 0072 5368     		ldr	r3, [r2, #4]
 149:controller/engine_cycle/trigger.c ****       if (trigger->status_synced_index == STATUS_TRIGGER1_SYNCED)
 546              		.loc 1 149 32 view .LVU175
 547 0074 0133     		adds	r3, r3, #1
 548 0076 5360     		str	r3, [r2, #4]
 150:controller/engine_cycle/trigger.c ****       {
 549              		.loc 1 150 7 is_stmt 1 view .LVU176
 150:controller/engine_cycle/trigger.c ****       {
 550              		.loc 1 150 18 is_stmt 0 view .LVU177
 551 0078 A378     		ldrb	r3, [r4, #2]	@ zero_extendqisi2
 150:controller/engine_cycle/trigger.c ****       {
 552              		.loc 1 150 10 view .LVU178
 553 007a 032B     		cmp	r3, #3
 554 007c 48D0     		beq	.L59
 555              	.LVL38:
 556              	.L43:
 155:controller/engine_cycle/trigger.c ****     }
 557              		.loc 1 155 7 is_stmt 1 view .LVU179
 155:controller/engine_cycle/trigger.c ****     }
 558              		.loc 1 155 31 is_stmt 0 view .LVU180
 559 007e 0023     		movs	r3, #0
ARM GAS  C:\Users\alireza\AppData\Local\Temp\cckpdMeE.s 			page 17


 560 0080 A384     		strh	r3, [r4, #36]	@ movhi
 561              	.LVL39:
 562              	.L40:
 170:controller/engine_cycle/trigger.c ****   runtime.rpm = (rpm_t)(CONVERSION_FACTOR_SECONDS_TO_MICROSECONDS * CONVERSION_FACTOR_MINUTES_TO_SE
 563              		.loc 1 170 3 is_stmt 1 view .LVU181
 170:controller/engine_cycle/trigger.c ****   runtime.rpm = (rpm_t)(CONVERSION_FACTOR_SECONDS_TO_MICROSECONDS * CONVERSION_FACTOR_MINUTES_TO_SE
 564              		.loc 1 170 55 is_stmt 0 view .LVU182
 565 0082 94F82710 		ldrb	r1, [r4, #39]	@ zero_extendqisi2
 170:controller/engine_cycle/trigger.c ****   runtime.rpm = (rpm_t)(CONVERSION_FACTOR_SECONDS_TO_MICROSECONDS * CONVERSION_FACTOR_MINUTES_TO_SE
 566              		.loc 1 170 39 view .LVU183
 567 0086 07EE901A 		vmov	s15, r1	@ int
 568 008a B8EE677A 		vcvt.f32.u32	s14, s15
 170:controller/engine_cycle/trigger.c ****   runtime.rpm = (rpm_t)(CONVERSION_FACTOR_SECONDS_TO_MICROSECONDS * CONVERSION_FACTOR_MINUTES_TO_SE
 569              		.loc 1 170 37 view .LVU184
 570 008e DFED4A6A 		vldr.32	s13, .L62+4
 571 0092 C6EE877A 		vdiv.f32	s15, s13, s14
 170:controller/engine_cycle/trigger.c ****   runtime.rpm = (rpm_t)(CONVERSION_FACTOR_SECONDS_TO_MICROSECONDS * CONVERSION_FACTOR_MINUTES_TO_SE
 572              		.loc 1 170 87 view .LVU185
 573 0096 A38C     		ldrh	r3, [r4, #36]
 574 0098 07EE103A 		vmov	s14, r3	@ int
 170:controller/engine_cycle/trigger.c ****   runtime.rpm = (rpm_t)(CONVERSION_FACTOR_SECONDS_TO_MICROSECONDS * CONVERSION_FACTOR_MINUTES_TO_SE
 575              		.loc 1 170 71 view .LVU186
 576 009c B8EE477A 		vcvt.f32.u32	s14, s14
 170:controller/engine_cycle/trigger.c ****   runtime.rpm = (rpm_t)(CONVERSION_FACTOR_SECONDS_TO_MICROSECONDS * CONVERSION_FACTOR_MINUTES_TO_SE
 577              		.loc 1 170 69 view .LVU187
 578 00a0 67EE877A 		vmul.f32	s15, s15, s14
 170:controller/engine_cycle/trigger.c ****   runtime.rpm = (rpm_t)(CONVERSION_FACTOR_SECONDS_TO_MICROSECONDS * CONVERSION_FACTOR_MINUTES_TO_SE
 579              		.loc 1 170 28 view .LVU188
 580 00a4 434A     		ldr	r2, .L62
 581 00a6 C2ED047A 		vstr.32	s15, [r2, #16]
 171:controller/engine_cycle/trigger.c ****   if (trigger->trigger_number == TRIGGER_NUMBER_1)
 582              		.loc 1 171 3 is_stmt 1 view .LVU189
 171:controller/engine_cycle/trigger.c ****   if (trigger->trigger_number == TRIGGER_NUMBER_1)
 583              		.loc 1 171 115 is_stmt 0 view .LVU190
 584 00aa E069     		ldr	r0, [r4, #28]
 171:controller/engine_cycle/trigger.c ****   if (trigger->trigger_number == TRIGGER_NUMBER_1)
 585              		.loc 1 171 106 view .LVU191
 586 00ac 434B     		ldr	r3, .L62+8
 587 00ae B3FBF0F3 		udiv	r3, r3, r0
 171:controller/engine_cycle/trigger.c ****   if (trigger->trigger_number == TRIGGER_NUMBER_1)
 588              		.loc 1 171 136 view .LVU192
 589 00b2 B3FBF1F3 		udiv	r3, r3, r1
 171:controller/engine_cycle/trigger.c ****   if (trigger->trigger_number == TRIGGER_NUMBER_1)
 590              		.loc 1 171 17 view .LVU193
 591 00b6 07EE903A 		vmov	s15, r3	@ int
 592 00ba F8EE677A 		vcvt.f32.u32	s15, s15
 171:controller/engine_cycle/trigger.c ****   if (trigger->trigger_number == TRIGGER_NUMBER_1)
 593              		.loc 1 171 15 view .LVU194
 594 00be C2ED067A 		vstr.32	s15, [r2, #24]
 172:controller/engine_cycle/trigger.c ****   {
 595              		.loc 1 172 3 is_stmt 1 view .LVU195
 172:controller/engine_cycle/trigger.c ****   {
 596              		.loc 1 172 14 is_stmt 0 view .LVU196
 597 00c2 2378     		ldrb	r3, [r4]	@ zero_extendqisi2
 172:controller/engine_cycle/trigger.c ****   {
 598              		.loc 1 172 6 view .LVU197
 599 00c4 002B     		cmp	r3, #0
ARM GAS  C:\Users\alireza\AppData\Local\Temp\cckpdMeE.s 			page 18


 600 00c6 53D1     		bne	.L46
 174:controller/engine_cycle/trigger.c ****   {
 601              		.loc 1 174 7 is_stmt 1 view .LVU198
 174:controller/engine_cycle/trigger.c ****   {
 602              		.loc 1 174 11 is_stmt 0 view .LVU199
 603 00c8 1368     		ldr	r3, [r2]
 604              	.LVL40:
 605              	.LBB36:
 606              	.LBI36:
  32:controller/utils/utils.h ****     }
  33:controller/utils/utils.h **** }
  34:controller/utils/utils.h **** 
  35:controller/utils/utils.h **** static inline bool get_bit(uint32_t flags, uint8_t bit)
 607              		.loc 2 35 20 is_stmt 1 view .LVU200
 608              	.LBB37:
  36:controller/utils/utils.h **** {
  37:controller/utils/utils.h ****     if (bit < 32)
 609              		.loc 2 37 5 view .LVU201
  38:controller/utils/utils.h ****     {
  39:controller/utils/utils.h ****         return (flags >> bit) & 1u;
 610              		.loc 2 39 9 view .LVU202
 611              		.loc 2 39 31 is_stmt 0 view .LVU203
 612 00ca C3F3C002 		ubfx	r2, r3, #3, #1
 613              	.LVL41:
 614              		.loc 2 39 31 view .LVU204
 615              	.LBE37:
 616              	.LBE36:
 174:controller/engine_cycle/trigger.c ****   {
 617              		.loc 1 174 10 discriminator 1 view .LVU205
 618 00ce 13F0080F 		tst	r3, #8
 619 00d2 3AD0     		beq	.L47
 174:controller/engine_cycle/trigger.c ****   {
 620              		.loc 1 174 102 discriminator 1 view .LVU206
 621 00d4 3A4B     		ldr	r3, .L62+12
 622 00d6 93ED807A 		vldr.32	s14, [r3, #512]
 174:controller/engine_cycle/trigger.c ****   {
 623              		.loc 1 174 78 discriminator 1 view .LVU207
 624 00da F4EEC77A 		vcmpe.f32	s15, s14
 625 00de F1EE10FA 		vmrs	APSR_nzcv, FPSCR
 626 00e2 32DB     		blt	.L47
 176:controller/engine_cycle/trigger.c ****   }
 627              		.loc 1 176 5 is_stmt 1 view .LVU208
 176:controller/engine_cycle/trigger.c ****   }
 628              		.loc 1 176 28 is_stmt 0 view .LVU209
 629 00e4 334B     		ldr	r3, .L62
 630 00e6 0322     		movs	r2, #3
 631 00e8 83F85020 		strb	r2, [r3, #80]
 632 00ec 40E0     		b	.L46
 633              	.LVL42:
 634              	.L57:
  85:controller/engine_cycle/trigger.c ****     log_error("Trigger is not initialized.");
 635              		.loc 1 85 5 is_stmt 1 view .LVU210
 636              	.LBB38:
 637              	.LBI38:
  19:controller/utils/utils.h **** {
 638              		.loc 2 19 20 view .LVU211
 639              	.LBB39:
ARM GAS  C:\Users\alireza\AppData\Local\Temp\cckpdMeE.s 			page 19


  21:controller/utils/utils.h ****     {
 640              		.loc 2 21 5 view .LVU212
  25:controller/utils/utils.h ****     {
 641              		.loc 2 25 5 view .LVU213
  27:controller/utils/utils.h ****     }
 642              		.loc 2 27 9 view .LVU214
 643 00ee 314A     		ldr	r2, .L62
 644 00f0 1368     		ldr	r3, [r2]
  27:controller/utils/utils.h ****     }
 645              		.loc 2 27 14 is_stmt 0 view .LVU215
 646 00f2 43F02003 		orr	r3, r3, #32
 647 00f6 1360     		str	r3, [r2]
 648              	.LVL43:
  27:controller/utils/utils.h ****     }
 649              		.loc 2 27 14 view .LVU216
 650              	.LBE39:
 651              	.LBE38:
  86:controller/engine_cycle/trigger.c ****     return;
 652              		.loc 1 86 5 is_stmt 1 view .LVU217
 653 00f8 3248     		ldr	r0, .L62+16
 654              	.LVL44:
  86:controller/engine_cycle/trigger.c ****     return;
 655              		.loc 1 86 5 is_stmt 0 view .LVU218
 656 00fa FFF7FEFF 		bl	log_error
 657              	.LVL45:
  87:controller/engine_cycle/trigger.c ****   }
 658              		.loc 1 87 5 is_stmt 1 view .LVU219
 659 00fe 4CE0     		b	.L32
 660              	.LVL46:
 661              	.L35:
 124:controller/engine_cycle/trigger.c ****   }
 662              		.loc 1 124 5 view .LVU220
 124:controller/engine_cycle/trigger.c ****   }
 663              		.loc 1 124 33 is_stmt 0 view .LVU221
 664 0100 E061     		str	r0, [r4, #28]
 665 0102 97E7     		b	.L36
 666              	.LVL47:
 667              	.L58:
 130:controller/engine_cycle/trigger.c ****   } // Multiply by 1.5 (Checks for a gap 1.5x greater than the last one) (Uses bitshift to multiply
 668              		.loc 1 130 5 is_stmt 1 view .LVU222
 130:controller/engine_cycle/trigger.c ****   } // Multiply by 1.5 (Checks for a gap 1.5x greater than the last one) (Uses bitshift to multiply
 669              		.loc 1 130 49 is_stmt 0 view .LVU223
 670 0104 E269     		ldr	r2, [r4, #28]
 130:controller/engine_cycle/trigger.c ****   } // Multiply by 1.5 (Checks for a gap 1.5x greater than the last one) (Uses bitshift to multiply
 671              		.loc 1 130 40 view .LVU224
 672 0106 02EB4202 		add	r2, r2, r2, lsl #1
 130:controller/engine_cycle/trigger.c ****   } // Multiply by 1.5 (Checks for a gap 1.5x greater than the last one) (Uses bitshift to multiply
 673              		.loc 1 130 71 view .LVU225
 674 010a 5208     		lsrs	r2, r2, #1
 130:controller/engine_cycle/trigger.c ****   } // Multiply by 1.5 (Checks for a gap 1.5x greater than the last one) (Uses bitshift to multiply
 675              		.loc 1 130 35 view .LVU226
 676 010c 2262     		str	r2, [r4, #32]
 677 010e 99E7     		b	.L38
 678              	.LVL48:
 679              	.L59:
 152:controller/engine_cycle/trigger.c ****         runtime.rpm = 0;
 680              		.loc 1 152 9 is_stmt 1 view .LVU227
ARM GAS  C:\Users\alireza\AppData\Local\Temp\cckpdMeE.s 			page 20


 152:controller/engine_cycle/trigger.c ****         runtime.rpm = 0;
 681              		.loc 1 152 35 is_stmt 0 view .LVU228
 682 0110 1346     		mov	r3, r2
 683 0112 0022     		movs	r2, #0
 684 0114 9A60     		str	r2, [r3, #8]
 153:controller/engine_cycle/trigger.c ****       }
 685              		.loc 1 153 9 is_stmt 1 view .LVU229
 153:controller/engine_cycle/trigger.c ****       }
 686              		.loc 1 153 21 is_stmt 0 view .LVU230
 687 0116 0022     		movs	r2, #0
 688 0118 9A61     		str	r2, [r3, #24]	@ float
 689              	.LVL49:
 153:controller/engine_cycle/trigger.c ****       }
 690              		.loc 1 153 21 view .LVU231
 691 011a B0E7     		b	.L43
 692              	.LVL50:
 693              	.L41:
 159:controller/engine_cycle/trigger.c ****       if (trigger->status_synced_index == STATUS_TRIGGER1_SYNCED)
 694              		.loc 1 159 7 is_stmt 1 view .LVU232
 695 011c A378     		ldrb	r3, [r4, #2]	@ zero_extendqisi2
 696              	.LVL51:
 697              	.LBB40:
 698              	.LBI40:
  19:controller/utils/utils.h **** {
 699              		.loc 2 19 20 view .LVU233
 700              	.LBB41:
  21:controller/utils/utils.h ****     {
 701              		.loc 2 21 5 view .LVU234
  21:controller/utils/utils.h ****     {
 702              		.loc 2 21 8 is_stmt 0 view .LVU235
 703 011e 1F2B     		cmp	r3, #31
 704 0120 06D8     		bhi	.L44
  25:controller/utils/utils.h ****     {
 705              		.loc 2 25 5 is_stmt 1 view .LVU236
  27:controller/utils/utils.h ****     }
 706              		.loc 2 27 9 view .LVU237
 707 0122 2448     		ldr	r0, .L62
 708 0124 0268     		ldr	r2, [r0]
  27:controller/utils/utils.h ****     }
 709              		.loc 2 27 21 is_stmt 0 view .LVU238
 710 0126 0121     		movs	r1, #1
 711 0128 01FA03F3 		lsl	r3, r1, r3
 712              	.LVL52:
  27:controller/utils/utils.h ****     }
 713              		.loc 2 27 14 view .LVU239
 714 012c 1A43     		orrs	r2, r2, r3
 715 012e 0260     		str	r2, [r0]
 716              	.LVL53:
 717              	.L44:
  27:controller/utils/utils.h ****     }
 718              		.loc 2 27 14 view .LVU240
 719              	.LBE41:
 720              	.LBE40:
 160:controller/engine_cycle/trigger.c ****       {
 721              		.loc 1 160 7 is_stmt 1 view .LVU241
 160:controller/engine_cycle/trigger.c ****       {
 722              		.loc 1 160 18 is_stmt 0 view .LVU242
ARM GAS  C:\Users\alireza\AppData\Local\Temp\cckpdMeE.s 			page 21


 723 0130 A378     		ldrb	r3, [r4, #2]	@ zero_extendqisi2
 160:controller/engine_cycle/trigger.c ****       {
 724              		.loc 1 160 10 view .LVU243
 725 0132 032B     		cmp	r3, #3
 726 0134 02D0     		beq	.L60
 727              	.L45:
 164:controller/engine_cycle/trigger.c ****       // here we can say we are at TDC!
 728              		.loc 1 164 7 is_stmt 1 view .LVU244
 164:controller/engine_cycle/trigger.c ****       // here we can say we are at TDC!
 729              		.loc 1 164 31 is_stmt 0 view .LVU245
 730 0136 0023     		movs	r3, #0
 731 0138 A384     		strh	r3, [r4, #36]	@ movhi
 732 013a A2E7     		b	.L40
 733              	.L60:
 162:controller/engine_cycle/trigger.c ****       }
 734              		.loc 1 162 9 is_stmt 1 view .LVU246
 162:controller/engine_cycle/trigger.c ****       }
 735              		.loc 1 162 16 is_stmt 0 view .LVU247
 736 013c 1D4A     		ldr	r2, .L62
 737 013e 9368     		ldr	r3, [r2, #8]
 162:controller/engine_cycle/trigger.c ****       }
 738              		.loc 1 162 34 view .LVU248
 739 0140 0133     		adds	r3, r3, #1
 740 0142 9360     		str	r3, [r2, #8]
 741 0144 F7E7     		b	.L45
 742              	.LVL54:
 743              	.L53:
 102:controller/engine_cycle/trigger.c **** 
 744              		.loc 1 102 8 view .LVU249
 745 0146 0025     		movs	r5, #0
 746 0148 9BE7     		b	.L40
 747              	.LVL55:
 748              	.L47:
 178:controller/engine_cycle/trigger.c ****   {
 749              		.loc 1 178 8 is_stmt 1 view .LVU250
 178:controller/engine_cycle/trigger.c ****   {
 750              		.loc 1 178 11 is_stmt 0 discriminator 1 view .LVU251
 751 014a 62B1     		cbz	r2, .L49
 178:controller/engine_cycle/trigger.c ****   {
 752              		.loc 1 178 102 discriminator 1 view .LVU252
 753 014c 1C4B     		ldr	r3, .L62+12
 754 014e 93ED807A 		vldr.32	s14, [r3, #512]
 178:controller/engine_cycle/trigger.c ****   {
 755              		.loc 1 178 79 discriminator 1 view .LVU253
 756 0152 F4EEC77A 		vcmpe.f32	s15, s14
 757 0156 F1EE10FA 		vmrs	APSR_nzcv, FPSCR
 758 015a 04D5     		bpl	.L49
 180:controller/engine_cycle/trigger.c ****   }
 759              		.loc 1 180 5 is_stmt 1 view .LVU254
 180:controller/engine_cycle/trigger.c ****   }
 760              		.loc 1 180 28 is_stmt 0 view .LVU255
 761 015c 154B     		ldr	r3, .L62
 762 015e 0222     		movs	r2, #2
 763 0160 83F85020 		strb	r2, [r3, #80]
 764 0164 04E0     		b	.L46
 765              	.L49:
 182:controller/engine_cycle/trigger.c ****   {
ARM GAS  C:\Users\alireza\AppData\Local\Temp\cckpdMeE.s 			page 22


 766              		.loc 1 182 8 is_stmt 1 view .LVU256
 182:controller/engine_cycle/trigger.c ****   {
 767              		.loc 1 182 11 is_stmt 0 discriminator 1 view .LVU257
 768 0166 DAB9     		cbnz	r2, .L51
 184:controller/engine_cycle/trigger.c ****   }
 769              		.loc 1 184 5 is_stmt 1 view .LVU258
 184:controller/engine_cycle/trigger.c ****   }
 770              		.loc 1 184 28 is_stmt 0 view .LVU259
 771 0168 124B     		ldr	r3, .L62
 772 016a 0122     		movs	r2, #1
 773 016c 83F85020 		strb	r2, [r3, #80]
 774              	.L46:
 197:controller/engine_cycle/trigger.c ****   {
 775              		.loc 1 197 3 is_stmt 1 view .LVU260
 197:controller/engine_cycle/trigger.c ****   {
 776              		.loc 1 197 6 is_stmt 0 view .LVU261
 777 0170 DDB1     		cbz	r5, .L61
 778              	.L52:
 203:controller/engine_cycle/trigger.c ****   trigger->_tooth_time_us[1] = trigger->_tooth_time_us[0];
 779              		.loc 1 203 3 is_stmt 1 view .LVU262
 203:controller/engine_cycle/trigger.c ****   trigger->_tooth_time_us[1] = trigger->_tooth_time_us[0];
 780              		.loc 1 203 55 is_stmt 0 view .LVU263
 781 0172 2369     		ldr	r3, [r4, #16]
 203:controller/engine_cycle/trigger.c ****   trigger->_tooth_time_us[1] = trigger->_tooth_time_us[0];
 782              		.loc 1 203 30 view .LVU264
 783 0174 6361     		str	r3, [r4, #20]
 204:controller/engine_cycle/trigger.c **** 
 784              		.loc 1 204 3 is_stmt 1 view .LVU265
 204:controller/engine_cycle/trigger.c **** 
 785              		.loc 1 204 55 is_stmt 0 view .LVU266
 786 0176 E368     		ldr	r3, [r4, #12]
 204:controller/engine_cycle/trigger.c **** 
 787              		.loc 1 204 30 view .LVU267
 788 0178 2361     		str	r3, [r4, #16]
 207:controller/engine_cycle/trigger.c ****   /* set the os flags for the engine */
 789              		.loc 1 207 3 is_stmt 1 view .LVU268
 790 017a FFF7FEFF 		bl	crankshaft_get_angle
 791              	.LVL56:
 792 017e B0EE408A 		vmov.f32	s16, s0
 207:controller/engine_cycle/trigger.c ****   /* set the os flags for the engine */
 793              		.loc 1 207 3 is_stmt 0 discriminator 1 view .LVU269
 794 0182 FFF7FEFF 		bl	crankshaft_get_rpm
 795              	.LVL57:
 796 0186 F0EE408A 		vmov.f32	s17, s0
 207:controller/engine_cycle/trigger.c ****   /* set the os flags for the engine */
 797              		.loc 1 207 3 discriminator 2 view .LVU270
 798 018a FFF7FEFF 		bl	get_time_us
 799              	.LVL58:
 207:controller/engine_cycle/trigger.c ****   /* set the os flags for the engine */
 800              		.loc 1 207 3 discriminator 3 view .LVU271
 801 018e F0EE680A 		vmov.f32	s1, s17
 802 0192 B0EE480A 		vmov.f32	s0, s16
 803 0196 FFF7FEFF 		bl	ignition_trigger_event_handle
 804              	.LVL59:
 805              	.L32:
 210:controller/engine_cycle/trigger.c **** 
 806              		.loc 1 210 1 view .LVU272
ARM GAS  C:\Users\alireza\AppData\Local\Temp\cckpdMeE.s 			page 23


 807 019a BDEC028B 		vldm	sp!, {d8}
 808              		.cfi_remember_state
 809              		.cfi_restore 80
 810              		.cfi_restore 81
 811              		.cfi_def_cfa_offset 16
 812 019e 38BD     		pop	{r3, r4, r5, pc}
 813              	.LVL60:
 814              	.L51:
 815              		.cfi_restore_state
 188:controller/engine_cycle/trigger.c ****   }
 816              		.loc 1 188 5 is_stmt 1 view .LVU273
 188:controller/engine_cycle/trigger.c ****   }
 817              		.loc 1 188 28 is_stmt 0 view .LVU274
 818 01a0 044B     		ldr	r3, .L62
 819 01a2 0022     		movs	r2, #0
 820 01a4 83F85020 		strb	r2, [r3, #80]
 821 01a8 E2E7     		b	.L46
 822              	.L61:
 200:controller/engine_cycle/trigger.c ****   }
 823              		.loc 1 200 5 is_stmt 1 view .LVU275
 824 01aa 2046     		mov	r0, r4
 825 01ac FFF7FEFF 		bl	set_filtering
 826              	.LVL61:
 827 01b0 DFE7     		b	.L52
 828              	.L63:
 829 01b2 00BF     		.align	2
 830              	.L62:
 831 01b4 00000000 		.word	runtime
 832 01b8 0000B443 		.word	1135869952
 833 01bc 00879303 		.word	60000000
 834 01c0 00100000 		.word	config+4096
 835 01c4 00000000 		.word	.LC3
 836              		.cfi_endproc
 837              	.LFE234:
 839              		.text
 840              	.Letext0:
 841              		.file 3 "C:/Users/alireza/AppData/Roaming/Code/User/globalStorage/bmd.stm32-for-vscode/@xpack-dev-
 842              		.file 4 "C:/Users/alireza/AppData/Roaming/Code/User/globalStorage/bmd.stm32-for-vscode/@xpack-dev-
 843              		.file 5 "controller/types.h"
 844              		.file 6 "controller/tables.h"
 845              		.file 7 "controller/config_and_runtime.h"
 846              		.file 8 "controller/engine_cycle/trigger.h"
 847              		.file 9 "controller/engine_cycle/ignition.h"
 848              		.file 10 "controller/utils/error_handling.h"
 849              		.file 11 "controller/utils/timing.h"
ARM GAS  C:\Users\alireza\AppData\Local\Temp\cckpdMeE.s 			page 24


DEFINED SYMBOLS
                            *ABS*:00000000 trigger.c
C:\Users\alireza\AppData\Local\Temp\cckpdMeE.s:21     .text.set_filtering:00000000 $t
C:\Users\alireza\AppData\Local\Temp\cckpdMeE.s:27     .text.set_filtering:00000000 set_filtering
C:\Users\alireza\AppData\Local\Temp\cckpdMeE.s:45     .text.set_filtering:0000000c $d
C:\Users\alireza\AppData\Local\Temp\cckpdMeE.s:49     .text.set_filtering:00000010 $t
C:\Users\alireza\AppData\Local\Temp\cckpdMeE.s:99     .rodata.trigger_init.str1.4:00000000 $d
C:\Users\alireza\AppData\Local\Temp\cckpdMeE.s:111    .text.trigger_init:00000000 $t
C:\Users\alireza\AppData\Local\Temp\cckpdMeE.s:117    .text.trigger_init:00000000 trigger_init
C:\Users\alireza\AppData\Local\Temp\cckpdMeE.s:339    .text.trigger_init:000000a0 $d
C:\Users\alireza\AppData\Local\Temp\cckpdMeE.s:347    .text.crankshaft_get_rpm:00000000 $t
C:\Users\alireza\AppData\Local\Temp\cckpdMeE.s:353    .text.crankshaft_get_rpm:00000000 crankshaft_get_rpm
C:\Users\alireza\AppData\Local\Temp\cckpdMeE.s:368    .text.crankshaft_get_rpm:00000008 $d
C:\Users\alireza\AppData\Local\Temp\cckpdMeE.s:373    .text.crankshaft_get_angle:00000000 $t
C:\Users\alireza\AppData\Local\Temp\cckpdMeE.s:379    .text.crankshaft_get_angle:00000000 crankshaft_get_angle
C:\Users\alireza\AppData\Local\Temp\cckpdMeE.s:394    .text.crankshaft_get_angle:00000008 $d
C:\Users\alireza\AppData\Local\Temp\cckpdMeE.s:399    .rodata.trigger_tooth_handle.str1.4:00000000 $d
C:\Users\alireza\AppData\Local\Temp\cckpdMeE.s:403    .text.trigger_tooth_handle:00000000 $t
C:\Users\alireza\AppData\Local\Temp\cckpdMeE.s:409    .text.trigger_tooth_handle:00000000 trigger_tooth_handle
C:\Users\alireza\AppData\Local\Temp\cckpdMeE.s:831    .text.trigger_tooth_handle:000001b4 $d

UNDEFINED SYMBOLS
log_error
runtime
get_time_us
ignition_trigger_event_handle
config
